Product: MDK-ARM Standard 5.10
Component: ARM Compiler 5.04 update 1 (build 49)
Tool: armlink [5040049]

==============================================================================

Section Cross References

    hw_config.o(.text) refers to mass_mal.o(.text) for MAL_Init
    hw_config.o(.text) refers to stm32f10x_rcc.o(.text) for RCC_DeInit
    hw_config.o(.text) refers to misc.o(.text) for NVIC_PriorityGroupConfig
    hw_config.o(.text) refers to stm3210x_eval.o(.text) for STM_EVAL_LEDInit
    hw_config.o(.text) refers to stm32f10x_gpio.o(.text) for GPIO_ResetBits
    hw_config.o(.text) refers to stm32f10x_exti.o(.text) for EXTI_ClearITPendingBit
    hw_config.o(.text) refers to usb_init.o(.text) for USB_Init
    hw_config.o(.text) refers to stm32f10x_tim.o(.text) for TIM_TimeBaseInit
    hw_config.o(.text) refers to stm32f10x_usart.o(.text) for USART_ClearITPendingBit
    hw_config.o(.text) refers to hw_config.o(.data) for HSEStartUpStatus
    hw_config.o(.text) refers to usb_pwr.o(.data) for bDeviceState
    hw_config.o(.text) refers to usb_init.o(.bss) for Device_Info
    hw_config.o(.text) refers to usb_desc.o(.data) for CustomHID_StringSerial
    main.o(.text) refers to hw_config.o(.text) for Set_System
    main.o(.text) refers to stm3210x_eval.o(.text) for RTC_init
    main.o(.text) refers to spi.o(.text) for SPI_Initial
    main.o(.text) refers to lcd.o(.text) for LcdInit
    main.o(.text) refers to stm32f10x_iwdg.o(.text) for IWDG_ReloadCounter
    main.o(.text) refers to ctrl.o(.text) for Ctrl_Init
    main.o(.text) refers to communication.o(.text) for Communicate
    main.o(.text) refers to display.o(.text) for Display
    main.o(.text) refers to main.o(.data) for Flag_1ms
    mass_mal.o(.text) refers to stm3210x_eval_sdio_sd.o(.text) for SD_Init
    mass_mal.o(.text) refers to mass_mal.o(.data) for Status
    mass_mal.o(.text) refers to mass_mal.o(.bss) for mSDCardInfo
    stm32_it.o(.text) refers to stm32f10x_usart.o(.text) for USART_GetITStatus
    stm32_it.o(.text) refers to stm32f10x_rtc.o(.text) for RTC_GetITStatus
    stm32_it.o(.text) refers to usb_istr.o(.text) for USB_Istr
    stm32_it.o(.text) refers to stm3210x_eval_sdio_sd.o(.text) for SD_ProcessIRQSrc
    stm32_it.o(.text) refers to stm32f10x_exti.o(.text) for EXTI_ClearITPendingBit
    stm32_it.o(.text) refers to stm32f10x_tim.o(.text) for TIM_ClearITPendingBit
    stm32_it.o(.text) refers to ctrl.o(.text) for TimerRun
    stm32_it.o(.text) refers to stm3210x_eval.o(.data) for b_rtc_int
    stm32_it.o(.text) refers to main.o(.data) for Flag_1ms
    stm32_it.o(.text) refers to stm32_it.o(.data) for TmDiv
    system_stm32f10x.o(.text) refers to system_stm32f10x.o(.data) for SystemCoreClock
    usb_endp.o(.text) refers to usb_sil.o(.text) for USB_SIL_Read
    usb_endp.o(.text) refers to usb_regs.o(.text) for SetEPRxStatus
    usb_endp.o(.text) refers to usb_endp.o(.bss) for Receive_Buffer
    usb_endp.o(.text) refers to communication.o(.data) for bRxdProc
    usb_endp.o(.text) refers to main.o(.data) for PrevXferComplete
    usb_istr.o(.text) refers to usb_int.o(.text) for CTR_LP
    usb_istr.o(.text) refers to usb_pwr.o(.text) for Resume
    usb_istr.o(.text) refers to usb_istr.o(.data) for wIstr
    usb_istr.o(.text) refers to usb_init.o(.data) for wInterrupt_Mask
    usb_istr.o(.text) refers to usb_prop.o(.data) for Device_Property
    usb_istr.o(.text) refers to usb_pwr.o(.data) for fSuspendEnabled
    usb_istr.o(.data) refers to usb_endp.o(.text) for EP1_IN_Callback
    usb_istr.o(.data) refers to usb_core.o(.text) for NOP_Process
    usb_prop.o(.text) refers to hw_config.o(.text) for Get_SerialNum
    usb_prop.o(.text) refers to usb_pwr.o(.text) for PowerOn
    usb_prop.o(.text) refers to usb_sil.o(.text) for USB_SIL_Init
    usb_prop.o(.text) refers to usb_regs.o(.text) for SetBTABLE
    usb_prop.o(.text) refers to usb_core.o(.text) for SetDeviceAddress
    usb_prop.o(.text) refers to usb_init.o(.data) for pInformation
    usb_prop.o(.text) refers to usb_pwr.o(.data) for bDeviceState
    usb_prop.o(.text) refers to usb_desc.o(.constdata) for CustomHID_ConfigDescriptor
    usb_prop.o(.text) refers to usb_prop.o(.data) for Device_Property
    usb_prop.o(.data) refers to usb_prop.o(.text) for CustomHID_init
    usb_prop.o(.data) refers to usb_core.o(.text) for NOP_Process
    usb_prop.o(.data) refers to usb_desc.o(.constdata) for CustomHID_DeviceDescriptor
    usb_prop.o(.data) refers to usb_desc.o(.data) for CustomHID_StringSerial
    usb_pwr.o(.text) refers to hw_config.o(.text) for USB_Cable_Config
    usb_pwr.o(.text) refers to usb_init.o(.data) for wInterrupt_Mask
    usb_pwr.o(.text) refers to usb_pwr.o(.bss) for EP
    usb_pwr.o(.text) refers to usb_pwr.o(.data) for ResumeS
    display.o(.text) refers to display.o(.data) for CurX
    display.o(.text) refers to lcd.o(.bss) for LcdData
    display.o(.text) refers to display.o(.constdata) for aBitMask
    display.o(.text) refers to display.o(.bss) for CurveUBuf
    display.o(.text) refers to db.o(.text) for DBLoadUI
    display.o(.text) refers to ctrl.o(.data) for byState
    display.o(.text) refers to db.o(.data) for dwdUITCnt
    display.o(.text) refers to db.o(.bss) for stChargeCfgData
    display.o(.text) refers to lludivv7m.o(.text) for __aeabi_uldivmod
    display.o(.text) refers to stm32f10x_rtc.o(.text) for RTC_GetCounter
    display.o(.text) refers to lcd.o(.text) for LcdRefresh
    display.o(.text) refers to ctrl.o(.constdata) for testUData
    lcd.o(.text) refers to stm32f10x_iwdg.o(.text) for IWDG_ReloadCounter
    lcd.o(.text) refers to spi.o(.text) for SPI_Dly
    lcd.o(.text) refers to stm32f10x_rcc.o(.text) for RCC_APB2PeriphClockCmd
    lcd.o(.text) refers to stm32f10x_gpio.o(.text) for GPIO_Init
    spi.o(.text) refers to stm32f10x_rcc.o(.text) for RCC_APB2PeriphClockCmd
    spi.o(.text) refers to stm32f10x_gpio.o(.text) for GPIO_Init
    ctrl.o(.text) refers to stm32f10x_rcc.o(.text) for RCC_APB2PeriphClockCmd
    ctrl.o(.text) refers to stm32f10x_gpio.o(.text) for GPIO_Init
    ctrl.o(.text) refers to stm32f10x_adc.o(.text) for ADC_Init
    ctrl.o(.text) refers to stm32f10x_tim.o(.text) for TIM_TimeBaseInit
    ctrl.o(.text) refers to ctrl.o(.constdata) for cawdAD2CelTab
    ctrl.o(.text) refers to ctrl.o(.data) for KeyStatus
    ctrl.o(.text) refers to db.o(.text) for DBCfgValidCheck
    ctrl.o(.text) refers to display.o(.data) for byMID
    ctrl.o(.text) refers to db.o(.data) for wdCurCfgDataIndex
    ctrl.o(.text) refers to db.o(.bss) for stChargeCfgData
    ctrl.o(.text) refers to stm32f10x_rtc.o(.text) for RTC_GetCounter
    ctrl.o(.text) refers to ctrl.o(.bss) for awdADCValSample
    ctrl.o(.text) refers to db.o(.constdata) for castChgCfgData
    ctrl.o(.text) refers to stm3210x_eval.o(.text) for STM_EVAL_LEDOn
    ctrl.o(.text) refers to ff.o(.text) for f_unlink
    db.o(.text) refers to ff_gen_drv.o(.text) for FATFS_LinkDriver
    db.o(.text) refers to diskio.o(.text) for disk_initialize
    db.o(.text) refers to ff.o(.text) for f_mount
    db.o(.text) refers to stm32f10x_iwdg.o(.text) for IWDG_ReloadCounter
    db.o(.text) refers to db.o(.data) for bFSInit
    db.o(.text) refers to sd_diskio.o(.data) for SD_Driver
    db.o(.text) refers to db.o(.bss) for fs
    db.o(.text) refers to ctrl.o(.data) for byCurType
    db.o(.text) refers to lludivv7m.o(.text) for __aeabi_uldivmod
    db.o(.text) refers to rt_memcpy_v6.o(.text) for __aeabi_memcpy
    db.o(.text) refers to stm32f10x_flash.o(.text) for FLASH_Unlock
    db.o(.text) refers to db.o(.ARM.__AT_0x08016000) for cbyFlashData
    communication.o(.text) refers to db.o(.text) for GetChkSum
    communication.o(.text) refers to stm32f10x_rtc.o(.text) for RTC_GetCounter
    communication.o(.text) refers to communication.o(.data) for byComWDGCnt
    communication.o(.text) refers to ctrl.o(.data) for bChgDisable
    communication.o(.text) refers to usb_endp.o(.bss) for Receive_Buffer_Bak
    communication.o(.text) refers to communication.o(.bss) for SendBuf
    communication.o(.text) refers to db.o(.data) for wdCurCfgDataIndex
    communication.o(.text) refers to db.o(.bss) for stChargeCfgData
    communication.o(.text) refers to display.o(.data) for byMID
    communication.o(.text) refers to usb_sil.o(.text) for USB_SIL_Write
    communication.o(.text) refers to usb_regs.o(.text) for SetEPTxValid
    communication.o(.text) refers to main.o(.data) for PrevXferComplete
    communication.o(.text) refers to usb_pwr.o(.data) for bDeviceState
    startup_stm32f10x_hd.o(STACK) refers (Special) to heapauxi.o(.text) for __use_two_region_memory
    startup_stm32f10x_hd.o(HEAP) refers (Special) to heapauxi.o(.text) for __use_two_region_memory
    startup_stm32f10x_hd.o(RESET) refers (Special) to heapauxi.o(.text) for __use_two_region_memory
    startup_stm32f10x_hd.o(RESET) refers to startup_stm32f10x_hd.o(STACK) for __initial_sp
    startup_stm32f10x_hd.o(RESET) refers to startup_stm32f10x_hd.o(.text) for Reset_Handler
    startup_stm32f10x_hd.o(RESET) refers to stm32_it.o(.text) for NMI_Handler
    startup_stm32f10x_hd.o(.text) refers (Special) to heapauxi.o(.text) for __use_two_region_memory
    startup_stm32f10x_hd.o(.text) refers to system_stm32f10x.o(.text) for SystemInit
    startup_stm32f10x_hd.o(.text) refers to __main.o(!!!main) for __main
    startup_stm32f10x_hd.o(.text) refers to startup_stm32f10x_hd.o(HEAP) for Heap_Mem
    startup_stm32f10x_hd.o(.text) refers to startup_stm32f10x_hd.o(STACK) for Stack_Mem
    usb_core.o(.text) refers to usb_regs.o(.text) for ClearDTOG_TX
    usb_core.o(.text) refers to usb_init.o(.data) for pInformation
    usb_core.o(.text) refers to usb_prop.o(.data) for Device_Table
    usb_core.o(.text) refers to usb_core.o(.data) for StatusInfo
    usb_core.o(.text) refers to usb_mem.o(.text) for PMAToUserBufferCopy
    usb_core.o(.text) refers to usb_int.o(.data) for SaveRState
    usb_init.o(.text) refers to usb_init.o(.bss) for Device_Info
    usb_init.o(.text) refers to usb_init.o(.data) for pInformation
    usb_init.o(.text) refers to usb_prop.o(.data) for Device_Property
    usb_int.o(.text) refers to usb_core.o(.text) for In0_Process
    usb_int.o(.text) refers to usb_istr.o(.data) for wIstr
    usb_int.o(.text) refers to usb_init.o(.data) for EPindex
    usb_int.o(.text) refers to usb_int.o(.data) for SaveRState
    usb_sil.o(.text) refers to usb_regs.o(.text) for GetEPTxAddr
    usb_sil.o(.text) refers to usb_mem.o(.text) for UserToPMABufferCopy
    usb_sil.o(.text) refers to usb_init.o(.data) for wInterrupt_Mask
    stm32f10x_adc.o(.text) refers to stm32f10x_rcc.o(.text) for RCC_APB2PeriphResetCmd
    stm32f10x_bkp.o(.text) refers to stm32f10x_rcc.o(.text) for RCC_BackupResetCmd
    stm32f10x_can.o(.text) refers to stm32f10x_rcc.o(.text) for RCC_APB1PeriphResetCmd
    stm32f10x_cec.o(.text) refers to stm32f10x_rcc.o(.text) for RCC_APB1PeriphResetCmd
    stm32f10x_dac.o(.text) refers to stm32f10x_rcc.o(.text) for RCC_APB1PeriphResetCmd
    stm32f10x_gpio.o(.text) refers to stm32f10x_rcc.o(.text) for RCC_APB2PeriphResetCmd
    stm32f10x_i2c.o(.text) refers to stm32f10x_rcc.o(.text) for RCC_APB1PeriphResetCmd
    stm32f10x_pwr.o(.text) refers to stm32f10x_rcc.o(.text) for RCC_APB1PeriphResetCmd
    stm32f10x_rcc.o(.text) refers to stm32f10x_rcc.o(.data) for APBAHBPrescTable
    stm32f10x_spi.o(.text) refers to stm32f10x_rcc.o(.text) for RCC_APB2PeriphResetCmd
    stm32f10x_tim.o(.text) refers to stm32f10x_rcc.o(.text) for RCC_APB2PeriphResetCmd
    stm32f10x_usart.o(.text) refers to stm32f10x_rcc.o(.text) for RCC_APB2PeriphResetCmd
    stm32f10x_wwdg.o(.text) refers to stm32f10x_rcc.o(.text) for RCC_APB1PeriphResetCmd
    stm3210x_eval.o(.text) refers to stm32f10x_rcc.o(.text) for RCC_APB2PeriphClockCmd
    stm3210x_eval.o(.text) refers to stm32f10x_gpio.o(.text) for GPIO_Init
    stm3210x_eval.o(.text) refers to stm32f10x_usart.o(.text) for USART_DeInit
    stm3210x_eval.o(.text) refers to stm32f10x_pwr.o(.text) for PWR_BackupAccessCmd
    stm3210x_eval.o(.text) refers to stm32f10x_rtc.o(.text) for RTC_SetCounter
    stm3210x_eval.o(.text) refers to stm32f10x_bkp.o(.text) for BKP_DeInit
    stm3210x_eval.o(.text) refers to stm32f10x_sdio.o(.text) for SDIO_ClockCmd
    stm3210x_eval.o(.text) refers to stm3210x_eval.o(.constdata) for GPIO_CLK
    stm3210x_eval.o(.text) refers to stm3210x_eval.o(.data) for GPIO_PORT
    stm3210x_eval.o(.text) refers to stm32f10x_dma.o(.text) for DMA_ClearFlag
    stm3210x_eval.o(.text) refers to stm32f10x_iwdg.o(.text) for IWDG_WriteAccessCmd
    stm3210x_eval_sdio_sd.o(.text) refers to stm3210x_eval.o(.text) for SD_LowLevel_DeInit
    stm3210x_eval_sdio_sd.o(.text) refers to stm32f10x_sdio.o(.text) for SDIO_ClearFlag
    stm3210x_eval_sdio_sd.o(.text) refers to stm3210x_eval_sdio_sd.o(.bss) for SDIO_CmdInitStructure
    stm3210x_eval_sdio_sd.o(.text) refers to stm3210x_eval_sdio_sd.o(.data) for RCA
    stm3210x_eval_sdio_sd.o(.text) refers to lludivv7m.o(.text) for __aeabi_uldivmod
    stm3210x_eval_sdio_sd.o(.text) refers to hw_config.o(.data) for b_tf
    stm3210x_eval_sdio_sd.o(.text) refers to stm32f10x_dma.o(.text) for DMA_ClearFlag
    diskio.o(.text) refers to ff_gen_drv.o(.bss) for disk
    ff.o(.text) refers to diskio.o(.text) for disk_write
    ff.o(.text) refers to ff.o(.bss) for Files
    ff.o(.text) refers to unicode.o(.text) for ff_wtoupper
    ff.o(.text) refers to ff.o(.constdata) for LfnOfs
    ff.o(.text) refers to ff.o(.data) for FatFs
    ff.o(.text) refers to syscall.o(.text) for ff_memalloc
    ff_gen_drv.o(.text) refers to ff_gen_drv.o(.bss) for disk
    sd_diskio.o(.text) refers to stm3210x_eval_sdio_sd.o(.text) for SD_GetStatus
    sd_diskio.o(.text) refers to lludivv7m.o(.text) for __aeabi_uldivmod
    sd_diskio.o(.text) refers to sd_diskio.o(.data) for Stat
    sd_diskio.o(.text) refers to stm3210x_eval_sdio_sd.o(.bss) for SDCardInfo
    sd_diskio.o(.data) refers to sd_diskio.o(.text) for SD_initialize
    syscall.o(.text) refers to h1_alloc.o(.text) for malloc
    syscall.o(.text) refers to h1_free.o(.text) for free
    unicode.o(.text) refers to unicode.o(.constdata) for Tbl
    malloc.o(.text) refers (Special) to hguard.o(.text) for __heap$guard
    malloc.o(.text) refers (Special) to init_alloc.o(.text) for _init_alloc
    malloc.o(.text) refers to rt_heap_descriptor_intlibspace.o(.text) for __rt_heap_descriptor
    malloc.o(.text) refers to heapstubs.o(.text) for __Heap_Alloc
    free.o(.text) refers (Special) to hguard.o(.text) for __heap$guard
    free.o(.text) refers to rt_heap_descriptor_intlibspace.o(.text) for __rt_heap_descriptor
    free.o(.text) refers to heapstubs.o(.text) for __Heap_Free
    h1_alloc.o(.text) refers (Special) to h1_init.o(.text) for __Heap_Initialize
    h1_alloc.o(.text) refers to rt_heap_descriptor_intlibspace.o(.text) for __rt_heap_descriptor
    h1_alloc.o(.text) refers to init_alloc.o(.text) for __Heap_Full
    h1_free.o(.text) refers to rt_heap_descriptor_intlibspace.o(.text) for __rt_heap_descriptor
    h1_alloc_mt.o(.text) refers (Special) to h1_init.o(.text) for __Heap_Initialize
    h1_alloc_mt.o(.text) refers to init_alloc.o(.text) for __Heap_Full
    h1_alloc_mt.o(.text) refers to rt_heap_descriptor_intlibspace.o(.text) for __rt_heap_descriptor
    h1_free_mt.o(.text) refers to rt_heap_descriptor_intlibspace.o(.text) for __rt_heap_descriptor
    heap2.o(i._FDIterate) refers to heap2.o(.conststring) for .conststring
    heap2.o(i.___Heap_ProvideMemory$realtime) refers to fdtree.o(i._FDTree_Delete) for _FDTree_Delete
    heap2.o(i.___Heap_ProvideMemory$realtime) refers to fdtree.o(i._FDTree_Insert) for _FDTree_Insert
    heap2.o(i.___Heap_Stats$realtime) refers to heap2.o(i._Heap2_StatsIterate) for _Heap2_StatsIterate
    heap2.o(i.___Heap_Valid$realtime) refers to heap2.o(i._FDIterate) for _FDIterate
    heap2.o(i.___Heap_Valid$realtime) refers to heap2.o(.conststring) for .conststring
    heap2.o(i._free$realtime) refers to rt_heap_descriptor_intlibspace.o(.text) for __rt_heap_descriptor
    heap2.o(i._free$realtime) refers to fdtree.o(i._FDTree_Delete) for _FDTree_Delete
    heap2.o(i._free$realtime) refers to fdtree.o(i._FDTree_Insert) for _FDTree_Insert
    heap2.o(i._malloc$realtime) refers to rt_heap_descriptor_intlibspace.o(.text) for __rt_heap_descriptor
    heap2.o(i._malloc$realtime) refers to fdtree.o(i._FDTree_FindFirst) for _FDTree_FindFirst
    heap2.o(i._malloc$realtime) refers to init_alloc.o(.text) for __Heap_Full
    heap2.o(i._malloc$realtime) refers to fdtree.o(i._FDTree_RemoveNode) for _FDTree_RemoveNode
    heap2.o(i._malloc$realtime) refers to fdtree.o(i._FDTree_Insert) for _FDTree_Insert
    heap2.o(i._posix_memalign$realtime) refers to rt_heap_descriptor_intlibspace.o(.text) for __rt_heap_descriptor
    heap2.o(i._posix_memalign$realtime) refers to fdtree.o(i._FDTree_FindFirst) for _FDTree_FindFirst
    heap2.o(i._posix_memalign$realtime) refers to init_alloc.o(.text) for __Heap_Full
    heap2.o(i._posix_memalign$realtime) refers to fdtree.o(i._FDTree_RemoveNode) for _FDTree_RemoveNode
    heap2.o(i._posix_memalign$realtime) refers to fdtree.o(i._FDTree_Insert) for _FDTree_Insert
    heap2.o(i._realloc$realtime) refers to rt_heap_descriptor_intlibspace.o(.text) for __rt_heap_descriptor
    heap2.o(i._realloc$realtime) refers to fdtree.o(i._FDTree_Insert) for _FDTree_Insert
    heap2.o(i._realloc$realtime) refers to h1_free.o(.text) for free
    heap2.o(i._realloc$realtime) refers to h1_alloc.o(.text) for malloc
    heap2.o(i._realloc$realtime) refers to fdtree.o(i._FDTree_Delete) for _FDTree_Delete
    heap2.o(i._realloc$realtime) refers to rt_memcpy_w.o(.text) for __aeabi_memcpy4
    heap2mt.o(i._FDIterate) refers to heap2mt.o(.conststring) for .conststring
    heap2mt.o(i.___Heap_Initialize$realtime$concurrent) refers to mutex_dummy.o(.text) for _mutex_initialize
    heap2mt.o(i.___Heap_ProvideMemory$realtime$concurrent) refers to fdtree.o(i._FDTree_Delete) for _FDTree_Delete
    heap2mt.o(i.___Heap_ProvideMemory$realtime$concurrent) refers to fdtree.o(i._FDTree_Insert) for _FDTree_Insert
    heap2mt.o(i.___Heap_Stats$realtime$concurrent) refers to heap2mt.o(i._Heap2_StatsIterate) for _Heap2_StatsIterate
    heap2mt.o(i.___Heap_Valid$realtime$concurrent) refers to heap2mt.o(i._FDIterate) for _FDIterate
    heap2mt.o(i.___Heap_Valid$realtime$concurrent) refers to heap2mt.o(.conststring) for .conststring
    heap2mt.o(i._free$realtime$concurrent) refers to rt_heap_descriptor_intlibspace.o(.text) for __rt_heap_descriptor
    heap2mt.o(i._free$realtime$concurrent) refers to fdtree.o(i._FDTree_Delete) for _FDTree_Delete
    heap2mt.o(i._free$realtime$concurrent) refers to fdtree.o(i._FDTree_Insert) for _FDTree_Insert
    heap2mt.o(i._malloc$realtime$concurrent) refers to rt_heap_descriptor_intlibspace.o(.text) for __rt_heap_descriptor
    heap2mt.o(i._malloc$realtime$concurrent) refers to fdtree.o(i._FDTree_FindFirst) for _FDTree_FindFirst
    heap2mt.o(i._malloc$realtime$concurrent) refers to init_alloc.o(.text) for __Heap_Full
    heap2mt.o(i._malloc$realtime$concurrent) refers to fdtree.o(i._FDTree_RemoveNode) for _FDTree_RemoveNode
    heap2mt.o(i._malloc$realtime$concurrent) refers to fdtree.o(i._FDTree_Insert) for _FDTree_Insert
    heap2mt.o(i._posix_memalign$realtime$concurrent) refers to rt_heap_descriptor_intlibspace.o(.text) for __rt_heap_descriptor
    heap2mt.o(i._posix_memalign$realtime$concurrent) refers to fdtree.o(i._FDTree_FindFirst) for _FDTree_FindFirst
    heap2mt.o(i._posix_memalign$realtime$concurrent) refers to init_alloc.o(.text) for __Heap_Full
    heap2mt.o(i._posix_memalign$realtime$concurrent) refers to fdtree.o(i._FDTree_RemoveNode) for _FDTree_RemoveNode
    heap2mt.o(i._posix_memalign$realtime$concurrent) refers to fdtree.o(i._FDTree_Insert) for _FDTree_Insert
    heap2mt.o(i._realloc$realtime$concurrent) refers to rt_heap_descriptor_intlibspace.o(.text) for __rt_heap_descriptor
    heap2mt.o(i._realloc$realtime$concurrent) refers to fdtree.o(i._FDTree_Insert) for _FDTree_Insert
    heap2mt.o(i._realloc$realtime$concurrent) refers to h1_free.o(.text) for free
    heap2mt.o(i._realloc$realtime$concurrent) refers to h1_alloc.o(.text) for malloc
    heap2mt.o(i._realloc$realtime$concurrent) refers to fdtree.o(i._FDTree_Delete) for _FDTree_Delete
    heap2mt.o(i._realloc$realtime$concurrent) refers to rt_memcpy_w.o(.text) for __aeabi_memcpy4
    rt_memcpy_v6.o(.text) refers to rt_memcpy_w.o(.text) for __aeabi_memcpy4
    __main.o(!!!main) refers to rtentry.o(.ARM.Collect$$rtentry$$00000000) for __rt_entry
    rtentry.o(.ARM.Collect$$rtentry$$00000000) refers (Special) to rtentry2.o(.ARM.Collect$$rtentry$$0000000A) for __rt_entry_li
    rtentry.o(.ARM.Collect$$rtentry$$00000000) refers (Special) to rtentry2.o(.ARM.Collect$$rtentry$$0000000D) for __rt_entry_main
    rtentry.o(.ARM.Collect$$rtentry$$00000000) refers (Special) to rtentry2.o(.ARM.Collect$$rtentry$$0000000C) for __rt_entry_postli_1
    rtentry.o(.ARM.Collect$$rtentry$$00000000) refers (Special) to rtentry2.o(.ARM.Collect$$rtentry$$00000009) for __rt_entry_postsh_1
    rtentry.o(.ARM.Collect$$rtentry$$00000000) refers (Special) to rtentry2.o(.ARM.Collect$$rtentry$$00000002) for __rt_entry_presh_1
    rtentry.o(.ARM.Collect$$rtentry$$00000000) refers (Special) to rtentry4.o(.ARM.Collect$$rtentry$$00000004) for __rt_entry_sh
    aeabi_ldiv0_sigfpe.o(.text) refers to rt_div0.o(.text) for __rt_div0
    rt_heap_descriptor.o(.text) refers to rt_heap_descriptor.o(.bss) for __rt_heap_descriptor_data
    rt_heap_descriptor_intlibspace.o(.text) refers to libspace.o(.bss) for __libspace_start
    init_alloc.o(.text) refers (Special) to hguard.o(.text) for __heap$guard
    init_alloc.o(.text) refers (Special) to libinit2.o(.ARM.Collect$$libinit$$00000003) for __rt_lib_init_heap_2
    init_alloc.o(.text) refers (Special) to maybetermalloc1.o(.emb_text) for _maybe_terminate_alloc
    init_alloc.o(.text) refers to h1_extend.o(.text) for __Heap_ProvideMemory
    init_alloc.o(.text) refers to defsig_rtmem_outer.o(.text) for __rt_SIGRTMEM
    init_alloc.o(.text) refers to rt_heap_descriptor_intlibspace.o(.text) for __rt_heap_descriptor
    init_alloc.o(.text) refers to h1_init.o(.text) for __Heap_Initialize
    h1_init_mt.o(.text) refers to mutex_dummy.o(.text) for _mutex_initialize
    _get_argv.o(.text) refers (Special) to hrguard.o(.text) for __heap_region$guard
    _get_argv.o(.text) refers to h1_alloc.o(.text) for malloc
    _get_argv.o(.text) refers to defsig_rtmem_outer.o(.text) for __rt_SIGRTMEM
    _get_argv.o(.text) refers to sys_command.o(.text) for _sys_command_string
    libinit2.o(.ARM.Collect$$libinit$$00000003) refers (Weak) to init_alloc.o(.text) for _init_alloc
    libinit2.o(.ARM.Collect$$libinit$$0000000E) refers to libinit2.o(.ARM.Collect$$libinit$$0000000D) for .ARM.Collect$$libinit$$0000000D
    libinit2.o(.ARM.Collect$$libinit$$00000010) refers to libinit2.o(.ARM.Collect$$libinit$$0000000D) for .ARM.Collect$$libinit$$0000000D
    libinit2.o(.ARM.Collect$$libinit$$00000012) refers to libinit2.o(.ARM.Collect$$libinit$$0000000D) for .ARM.Collect$$libinit$$0000000D
    libinit2.o(.ARM.Collect$$libinit$$00000014) refers to libinit2.o(.ARM.Collect$$libinit$$0000000D) for .ARM.Collect$$libinit$$0000000D
    libinit2.o(.ARM.Collect$$libinit$$00000016) refers to libinit2.o(.ARM.Collect$$libinit$$0000000D) for .ARM.Collect$$libinit$$0000000D
    libinit2.o(.ARM.Collect$$libinit$$00000024) refers to argv_veneer.o(.emb_text) for __ARM_argv_veneer
    libinit2.o(.ARM.Collect$$libinit$$00000025) refers to argv_veneer.o(.emb_text) for __ARM_argv_veneer
    sys_command.o(.text) refers (Special) to use_no_semi.o(.text) for __I$use$semihosting
    sys_command.o(.text) refers (Special) to indicate_semi.o(.text) for __semihosting_library_function
    libspace.o(.text) refers to libspace.o(.bss) for __libspace_start
    rtentry2.o(.ARM.Collect$$rtentry$$00000008) refers to boardinit2.o(.text) for _platform_post_stackheap_init
    rtentry2.o(.ARM.Collect$$rtentry$$0000000A) refers to libinit.o(.ARM.Collect$$libinit$$00000000) for __rt_lib_init
    rtentry2.o(.ARM.Collect$$rtentry$$0000000B) refers to boardinit3.o(.text) for _platform_post_lib_init
    rtentry2.o(.ARM.Collect$$rtentry$$0000000D) refers to main.o(.text) for main
    rtentry2.o(.ARM.Collect$$rtentry$$0000000D) refers to exit.o(.text) for exit
    rtentry2.o(.ARM.exidx) refers to rtentry2.o(.ARM.Collect$$rtentry$$00000001) for .ARM.Collect$$rtentry$$00000001
    rtentry2.o(.ARM.exidx) refers to rtentry2.o(.ARM.Collect$$rtentry$$00000008) for .ARM.Collect$$rtentry$$00000008
    rtentry2.o(.ARM.exidx) refers to rtentry2.o(.ARM.Collect$$rtentry$$0000000A) for .ARM.Collect$$rtentry$$0000000A
    rtentry2.o(.ARM.exidx) refers to rtentry2.o(.ARM.Collect$$rtentry$$0000000B) for .ARM.Collect$$rtentry$$0000000B
    rtentry2.o(.ARM.exidx) refers to rtentry2.o(.ARM.Collect$$rtentry$$0000000D) for .ARM.Collect$$rtentry$$0000000D
    rtentry4.o(.ARM.Collect$$rtentry$$00000004) refers to sys_stackheap_outer.o(.text) for __user_setup_stackheap
    rtentry4.o(.ARM.exidx) refers to rtentry4.o(.ARM.Collect$$rtentry$$00000004) for .ARM.Collect$$rtentry$$00000004
    rt_div0.o(.text) refers to defsig_fpe_outer.o(.text) for __rt_SIGFPE
    maybetermalloc2.o(.emb_text) refers (Special) to term_alloc.o(.text) for _terminate_alloc
    h1_extend.o(.text) refers to h1_free.o(.text) for free
    h1_extend_mt.o(.text) refers to h1_free_mt.o(.text) for _free_internal
    defsig_rtmem_outer.o(.text) refers to defsig_rtmem_inner.o(.text) for __rt_SIGRTMEM_inner
    defsig_rtmem_outer.o(.text) refers to defsig_exit.o(.text) for __sig_exit
    defsig_rtmem_formal.o(.text) refers to rt_raise.o(.text) for __rt_raise
    heapauxa.o(.text) refers to heapauxa.o(.data) for .data
    argv_veneer.o(.emb_text) refers to no_argv.o(.text) for __ARM_get_argv
    sys_stackheap_outer.o(.text) refers to libspace.o(.text) for __user_perproc_libspace
    sys_stackheap_outer.o(.text) refers to startup_stm32f10x_hd.o(.text) for __user_initial_stackheap
    rt_raise.o(.text) refers to __raise.o(.text) for __raise
    rt_raise.o(.text) refers to sys_exit.o(.text) for _sys_exit
    term_alloc.o(.text) refers (Special) to libshutdown2.o(.ARM.Collect$$libshutdown$$0000000D) for __rt_lib_shutdown_heap_2
    term_alloc.o(.text) refers to rt_heap_descriptor_intlibspace.o(.text) for __rt_heap_descriptor
    term_alloc.o(.text) refers to h1_final.o(.text) for __Heap_Finalize
    exit.o(.text) refers to rtexit.o(.ARM.Collect$$rtexit$$00000000) for __rt_exit
    defsig_exit.o(.text) refers to sys_exit.o(.text) for _sys_exit
    defsig_fpe_outer.o(.text) refers to defsig_fpe_inner.o(.text) for __rt_SIGFPE_inner
    defsig_fpe_outer.o(.text) refers to defsig_exit.o(.text) for __sig_exit
    defsig_fpe_formal.o(.text) refers to rt_raise.o(.text) for __rt_raise
    defsig_rtmem_inner.o(.text) refers to defsig_general.o(.text) for __default_signal_display
    _get_argv_nomalloc.o(.text) refers (Special) to hrguard.o(.text) for __heap_region$guard
    _get_argv_nomalloc.o(.text) refers to defsig_rtmem_outer.o(.text) for __rt_SIGRTMEM
    _get_argv_nomalloc.o(.text) refers to sys_command.o(.text) for _sys_command_string
    libinit.o(.ARM.Collect$$libinit$$00000000) refers (Special) to libinit2.o(.ARM.Collect$$libinit$$0000002C) for __rt_lib_init_alloca_1
    libinit.o(.ARM.Collect$$libinit$$00000000) refers (Special) to libinit2.o(.ARM.Collect$$libinit$$0000002A) for __rt_lib_init_argv_1
    libinit.o(.ARM.Collect$$libinit$$00000000) refers (Special) to libinit2.o(.ARM.Collect$$libinit$$00000019) for __rt_lib_init_atexit_1
    libinit.o(.ARM.Collect$$libinit$$00000000) refers (Special) to libinit2.o(.ARM.Collect$$libinit$$0000001F) for __rt_lib_init_clock_1
    libinit.o(.ARM.Collect$$libinit$$00000000) refers (Special) to libinit2.o(.ARM.Collect$$libinit$$00000030) for __rt_lib_init_cpp_1
    libinit.o(.ARM.Collect$$libinit$$00000000) refers (Special) to libinit2.o(.ARM.Collect$$libinit$$0000002E) for __rt_lib_init_exceptions_1
    libinit.o(.ARM.Collect$$libinit$$00000000) refers (Special) to libinit2.o(.ARM.Collect$$libinit$$00000002) for __rt_lib_init_fp_1
    libinit.o(.ARM.Collect$$libinit$$00000000) refers (Special) to libinit2.o(.ARM.Collect$$libinit$$0000001D) for __rt_lib_init_fp_trap_1
    libinit.o(.ARM.Collect$$libinit$$00000000) refers (Special) to libinit2.o(.ARM.Collect$$libinit$$00000021) for __rt_lib_init_getenv_1
    libinit.o(.ARM.Collect$$libinit$$00000000) refers (Special) to libinit2.o(.ARM.Collect$$libinit$$00000008) for __rt_lib_init_heap_1
    libinit.o(.ARM.Collect$$libinit$$00000000) refers (Special) to libinit2.o(.ARM.Collect$$libinit$$0000000F) for __rt_lib_init_lc_collate_1
    libinit.o(.ARM.Collect$$libinit$$00000000) refers (Special) to libinit2.o(.ARM.Collect$$libinit$$00000011) for __rt_lib_init_lc_ctype_1
    libinit.o(.ARM.Collect$$libinit$$00000000) refers (Special) to libinit2.o(.ARM.Collect$$libinit$$00000013) for __rt_lib_init_lc_monetary_1
    libinit.o(.ARM.Collect$$libinit$$00000000) refers (Special) to libinit2.o(.ARM.Collect$$libinit$$00000015) for __rt_lib_init_lc_numeric_1
    libinit.o(.ARM.Collect$$libinit$$00000000) refers (Special) to libinit2.o(.ARM.Collect$$libinit$$00000017) for __rt_lib_init_lc_time_1
    libinit.o(.ARM.Collect$$libinit$$00000000) refers (Special) to libinit2.o(.ARM.Collect$$libinit$$0000000C) for __rt_lib_init_rand_1
    libinit.o(.ARM.Collect$$libinit$$00000000) refers (Special) to libinit2.o(.ARM.Collect$$libinit$$00000031) for __rt_lib_init_return
    libinit.o(.ARM.Collect$$libinit$$00000000) refers (Special) to libinit2.o(.ARM.Collect$$libinit$$0000001B) for __rt_lib_init_signal_1
    libinit.o(.ARM.Collect$$libinit$$00000000) refers (Special) to libinit2.o(.ARM.Collect$$libinit$$00000023) for __rt_lib_init_stdio_1
    libinit.o(.ARM.Collect$$libinit$$00000000) refers (Special) to libinit2.o(.ARM.Collect$$libinit$$0000000A) for __rt_lib_init_user_alloc_1
    sys_exit.o(.text) refers (Special) to use_no_semi.o(.text) for __I$use$semihosting
    sys_exit.o(.text) refers (Special) to indicate_semi.o(.text) for __semihosting_library_function
    rtexit.o(.ARM.Collect$$rtexit$$00000000) refers (Special) to rtexit2.o(.ARM.Collect$$rtexit$$00000004) for __rt_exit_exit
    rtexit.o(.ARM.Collect$$rtexit$$00000000) refers (Special) to rtexit2.o(.ARM.Collect$$rtexit$$00000003) for __rt_exit_ls
    rtexit.o(.ARM.Collect$$rtexit$$00000000) refers (Special) to rtexit2.o(.ARM.Collect$$rtexit$$00000002) for __rt_exit_prels_1
    rtexit.o(.ARM.exidx) refers (Special) to rtexit2.o(.ARM.Collect$$rtexit$$00000004) for __rt_exit_exit
    rtexit.o(.ARM.exidx) refers (Special) to rtexit2.o(.ARM.Collect$$rtexit$$00000003) for __rt_exit_ls
    rtexit.o(.ARM.exidx) refers (Special) to rtexit2.o(.ARM.Collect$$rtexit$$00000002) for __rt_exit_prels_1
    rtexit.o(.ARM.exidx) refers to rtexit.o(.ARM.Collect$$rtexit$$00000000) for .ARM.Collect$$rtexit$$00000000
    __raise.o(.text) refers to defsig.o(CL$$defsig) for __default_signal_handler
    defsig_general.o(.text) refers to sys_wrch.o(.text) for _ttywrch
    defsig_fpe_inner.o(.text) refers to defsig_general.o(.text) for __default_signal_display
    libshutdown2.o(.ARM.Collect$$libshutdown$$0000000C) refers (Weak) to term_alloc.o(.text) for _terminate_alloc
    sys_wrch.o(.text) refers (Special) to use_no_semi.o(.text) for __I$use$semihosting
    sys_wrch.o(.text) refers (Special) to indicate_semi.o(.text) for __semihosting_library_function
    rtexit2.o(.ARM.Collect$$rtexit$$00000003) refers to libshutdown.o(.ARM.Collect$$libshutdown$$00000000) for __rt_lib_shutdown
    rtexit2.o(.ARM.Collect$$rtexit$$00000004) refers to sys_exit.o(.text) for _sys_exit
    rtexit2.o(.ARM.exidx) refers to rtexit2.o(.ARM.Collect$$rtexit$$00000001) for .ARM.Collect$$rtexit$$00000001
    rtexit2.o(.ARM.exidx) refers to rtexit2.o(.ARM.Collect$$rtexit$$00000003) for .ARM.Collect$$rtexit$$00000003
    rtexit2.o(.ARM.exidx) refers to rtexit2.o(.ARM.Collect$$rtexit$$00000004) for .ARM.Collect$$rtexit$$00000004
    defsig.o(CL$$defsig) refers to defsig_fpe_inner.o(.text) for __rt_SIGFPE_inner
    defsig.o(CL$$defsig) refers to defsig_rtmem_inner.o(.text) for __rt_SIGRTMEM_inner
    defsig_abrt_inner.o(.text) refers to defsig_general.o(.text) for __default_signal_display
    defsig_rtred_inner.o(.text) refers to defsig_general.o(.text) for __default_signal_display
    defsig_stak_inner.o(.text) refers to defsig_general.o(.text) for __default_signal_display
    defsig_pvfn_inner.o(.text) refers to defsig_general.o(.text) for __default_signal_display
    defsig_cppl_inner.o(.text) refers to defsig_general.o(.text) for __default_signal_display
    defsig_segv_inner.o(.text) refers to defsig_general.o(.text) for __default_signal_display
    defsig_other.o(.text) refers to defsig_general.o(.text) for __default_signal_display
    libshutdown.o(.ARM.Collect$$libshutdown$$00000000) refers (Special) to libshutdown2.o(.ARM.Collect$$libshutdown$$00000006) for __rt_lib_shutdown_fp_trap_1
    libshutdown.o(.ARM.Collect$$libshutdown$$00000000) refers (Special) to libshutdown2.o(.ARM.Collect$$libshutdown$$0000000E) for __rt_lib_shutdown_heap_1
    libshutdown.o(.ARM.Collect$$libshutdown$$00000000) refers (Special) to libshutdown2.o(.ARM.Collect$$libshutdown$$0000000F) for __rt_lib_shutdown_return
    libshutdown.o(.ARM.Collect$$libshutdown$$00000000) refers (Special) to libshutdown2.o(.ARM.Collect$$libshutdown$$00000009) for __rt_lib_shutdown_signal_1
    libshutdown.o(.ARM.Collect$$libshutdown$$00000000) refers (Special) to libshutdown2.o(.ARM.Collect$$libshutdown$$00000003) for __rt_lib_shutdown_stdio_1
    libshutdown.o(.ARM.Collect$$libshutdown$$00000000) refers (Special) to libshutdown2.o(.ARM.Collect$$libshutdown$$0000000B) for __rt_lib_shutdown_user_alloc_1


==============================================================================

Removing Unused input sections from the image.

    Removing hw_config.o(.rev16_text), (4 bytes).
    Removing hw_config.o(.revsh_text), (4 bytes).
    Removing main.o(.rev16_text), (4 bytes).
    Removing main.o(.revsh_text), (4 bytes).
    Removing mass_mal.o(.rev16_text), (4 bytes).
    Removing mass_mal.o(.revsh_text), (4 bytes).
    Removing stm32_it.o(.rev16_text), (4 bytes).
    Removing stm32_it.o(.revsh_text), (4 bytes).
    Removing system_stm32f10x.o(.rev16_text), (4 bytes).
    Removing system_stm32f10x.o(.revsh_text), (4 bytes).
    Removing usb_desc.o(.rev16_text), (4 bytes).
    Removing usb_desc.o(.revsh_text), (4 bytes).
    Removing usb_endp.o(.rev16_text), (4 bytes).
    Removing usb_endp.o(.revsh_text), (4 bytes).
    Removing usb_istr.o(.rev16_text), (4 bytes).
    Removing usb_istr.o(.revsh_text), (4 bytes).
    Removing usb_prop.o(.rev16_text), (4 bytes).
    Removing usb_prop.o(.revsh_text), (4 bytes).
    Removing usb_pwr.o(.rev16_text), (4 bytes).
    Removing usb_pwr.o(.revsh_text), (4 bytes).
    Removing display.o(.rev16_text), (4 bytes).
    Removing display.o(.revsh_text), (4 bytes).
    Removing lcd.o(.rev16_text), (4 bytes).
    Removing lcd.o(.revsh_text), (4 bytes).
    Removing lcd.o(.data), (3 bytes).
    Removing spi.o(.rev16_text), (4 bytes).
    Removing spi.o(.revsh_text), (4 bytes).
    Removing ctrl.o(.rev16_text), (4 bytes).
    Removing ctrl.o(.revsh_text), (4 bytes).
    Removing db.o(.rev16_text), (4 bytes).
    Removing db.o(.revsh_text), (4 bytes).
    Removing communication.o(.rev16_text), (4 bytes).
    Removing communication.o(.revsh_text), (4 bytes).
    Removing usb_core.o(.rev16_text), (4 bytes).
    Removing usb_core.o(.revsh_text), (4 bytes).
    Removing usb_init.o(.rev16_text), (4 bytes).
    Removing usb_init.o(.revsh_text), (4 bytes).
    Removing usb_int.o(.rev16_text), (4 bytes).
    Removing usb_int.o(.revsh_text), (4 bytes).
    Removing usb_mem.o(.rev16_text), (4 bytes).
    Removing usb_mem.o(.revsh_text), (4 bytes).
    Removing usb_regs.o(.rev16_text), (4 bytes).
    Removing usb_regs.o(.revsh_text), (4 bytes).
    Removing usb_sil.o(.rev16_text), (4 bytes).
    Removing usb_sil.o(.revsh_text), (4 bytes).
    Removing misc.o(.rev16_text), (4 bytes).
    Removing misc.o(.revsh_text), (4 bytes).
    Removing stm32f10x_adc.o(.rev16_text), (4 bytes).
    Removing stm32f10x_adc.o(.revsh_text), (4 bytes).
    Removing stm32f10x_bkp.o(.rev16_text), (4 bytes).
    Removing stm32f10x_bkp.o(.revsh_text), (4 bytes).
    Removing stm32f10x_can.o(.rev16_text), (4 bytes).
    Removing stm32f10x_can.o(.revsh_text), (4 bytes).
    Removing stm32f10x_can.o(.text), (2544 bytes).
    Removing stm32f10x_cec.o(.rev16_text), (4 bytes).
    Removing stm32f10x_cec.o(.revsh_text), (4 bytes).
    Removing stm32f10x_cec.o(.text), (288 bytes).
    Removing stm32f10x_crc.o(.rev16_text), (4 bytes).
    Removing stm32f10x_crc.o(.revsh_text), (4 bytes).
    Removing stm32f10x_crc.o(.text), (72 bytes).
    Removing stm32f10x_dac.o(.rev16_text), (4 bytes).
    Removing stm32f10x_dac.o(.revsh_text), (4 bytes).
    Removing stm32f10x_dac.o(.text), (396 bytes).
    Removing stm32f10x_dbgmcu.o(.rev16_text), (4 bytes).
    Removing stm32f10x_dbgmcu.o(.revsh_text), (4 bytes).
    Removing stm32f10x_dbgmcu.o(.text), (48 bytes).
    Removing stm32f10x_dma.o(.rev16_text), (4 bytes).
    Removing stm32f10x_dma.o(.revsh_text), (4 bytes).
    Removing stm32f10x_exti.o(.rev16_text), (4 bytes).
    Removing stm32f10x_exti.o(.revsh_text), (4 bytes).
    Removing stm32f10x_flash.o(.rev16_text), (4 bytes).
    Removing stm32f10x_flash.o(.revsh_text), (4 bytes).
    Removing stm32f10x_fsmc.o(.rev16_text), (4 bytes).
    Removing stm32f10x_fsmc.o(.revsh_text), (4 bytes).
    Removing stm32f10x_fsmc.o(.text), (1548 bytes).
    Removing stm32f10x_gpio.o(.rev16_text), (4 bytes).
    Removing stm32f10x_gpio.o(.revsh_text), (4 bytes).
    Removing stm32f10x_i2c.o(.rev16_text), (4 bytes).
    Removing stm32f10x_i2c.o(.revsh_text), (4 bytes).
    Removing stm32f10x_i2c.o(.text), (1028 bytes).
    Removing stm32f10x_iwdg.o(.rev16_text), (4 bytes).
    Removing stm32f10x_iwdg.o(.revsh_text), (4 bytes).
    Removing stm32f10x_pwr.o(.rev16_text), (4 bytes).
    Removing stm32f10x_pwr.o(.revsh_text), (4 bytes).
    Removing stm32f10x_rcc.o(.rev16_text), (4 bytes).
    Removing stm32f10x_rcc.o(.revsh_text), (4 bytes).
    Removing stm32f10x_rtc.o(.rev16_text), (4 bytes).
    Removing stm32f10x_rtc.o(.revsh_text), (4 bytes).
    Removing stm32f10x_sdio.o(.rev16_text), (4 bytes).
    Removing stm32f10x_sdio.o(.revsh_text), (4 bytes).
    Removing stm32f10x_spi.o(.rev16_text), (4 bytes).
    Removing stm32f10x_spi.o(.revsh_text), (4 bytes).
    Removing stm32f10x_spi.o(.text), (780 bytes).
    Removing stm32f10x_tim.o(.rev16_text), (4 bytes).
    Removing stm32f10x_tim.o(.revsh_text), (4 bytes).
    Removing stm32f10x_usart.o(.rev16_text), (4 bytes).
    Removing stm32f10x_usart.o(.revsh_text), (4 bytes).
    Removing stm32f10x_wwdg.o(.rev16_text), (4 bytes).
    Removing stm32f10x_wwdg.o(.revsh_text), (4 bytes).
    Removing stm32f10x_wwdg.o(.text), (136 bytes).
    Removing stm3210x_eval.o(.rev16_text), (4 bytes).
    Removing stm3210x_eval.o(.revsh_text), (4 bytes).
    Removing stm3210x_eval.o(.bss), (1326 bytes).
    Removing stm3210x_eval_sdio_sd.o(.rev16_text), (4 bytes).
    Removing stm3210x_eval_sdio_sd.o(.revsh_text), (4 bytes).
    Removing diskio.o(.rev16_text), (4 bytes).
    Removing diskio.o(.revsh_text), (4 bytes).
    Removing ff.o(.rev16_text), (4 bytes).
    Removing ff.o(.revsh_text), (4 bytes).
    Removing ff_gen_drv.o(.rev16_text), (4 bytes).
    Removing ff_gen_drv.o(.revsh_text), (4 bytes).
    Removing sd_diskio.o(.rev16_text), (4 bytes).
    Removing sd_diskio.o(.revsh_text), (4 bytes).
    Removing syscall.o(.rev16_text), (4 bytes).
    Removing syscall.o(.revsh_text), (4 bytes).
    Removing unicode.o(.rev16_text), (4 bytes).
    Removing unicode.o(.revsh_text), (4 bytes).

117 unused section(s) (total 8593 bytes) removed from the image.

==============================================================================

Image Symbol Table

    Local Symbols

    Symbol Name                              Value     Ov Type        Size  Object(Section)

    ../clib/angel/boardlib.s                 0x00000000   Number         0  boardinit2.o ABSOLUTE
    ../clib/angel/boardlib.s                 0x00000000   Number         0  boardinit1.o ABSOLUTE
    ../clib/angel/boardlib.s                 0x00000000   Number         0  boardshut.o ABSOLUTE
    ../clib/angel/boardlib.s                 0x00000000   Number         0  boardinit3.o ABSOLUTE
    ../clib/angel/dczerorl2.s                0x00000000   Number         0  __dczerorl2.o ABSOLUTE
    ../clib/angel/handlers.s                 0x00000000   Number         0  __scatter_zi.o ABSOLUTE
    ../clib/angel/kernel.s                   0x00000000   Number         0  rtentry4.o ABSOLUTE
    ../clib/angel/kernel.s                   0x00000000   Number         0  rtentry2.o ABSOLUTE
    ../clib/angel/kernel.s                   0x00000000   Number         0  rtexit.o ABSOLUTE
    ../clib/angel/kernel.s                   0x00000000   Number         0  rtentry.o ABSOLUTE
    ../clib/angel/kernel.s                   0x00000000   Number         0  rtexit2.o ABSOLUTE
    ../clib/angel/rt.s                       0x00000000   Number         0  rt_div0.o ABSOLUTE
    ../clib/angel/rt.s                       0x00000000   Number         0  rt_heap_descriptor_intlibspace.o ABSOLUTE
    ../clib/angel/rt.s                       0x00000000   Number         0  rt_heap_descriptor.o ABSOLUTE
    ../clib/angel/rt.s                       0x00000000   Number         0  aeabi_ldiv0_sigfpe.o ABSOLUTE
    ../clib/angel/rt.s                       0x00000000   Number         0  aeabi_ldiv0.o ABSOLUTE
    ../clib/angel/rt.s                       0x00000000   Number         0  rt_raise.o ABSOLUTE
    ../clib/angel/scatter.s                  0x00000000   Number         0  __scatter.o ABSOLUTE
    ../clib/angel/startup.s                  0x00000000   Number         0  __main.o ABSOLUTE
    ../clib/angel/sys.s                      0x00000000   Number         0  libspace.o ABSOLUTE
    ../clib/angel/sys.s                      0x00000000   Number         0  sys_stackheap_outer.o ABSOLUTE
    ../clib/angel/sys.s                      0x00000000   Number         0  mutex_dummy.o ABSOLUTE
    ../clib/angel/sys.s                      0x00000000   Number         0  indicate_semi.o ABSOLUTE
    ../clib/angel/sys.s                      0x00000000   Number         0  use_no_semi.o ABSOLUTE
    ../clib/angel/sysapp.c                   0x00000000   Number         0  sys_wrch.o ABSOLUTE
    ../clib/angel/sysapp.c                   0x00000000   Number         0  sys_exit.o ABSOLUTE
    ../clib/angel/sysapp.c                   0x00000000   Number         0  sys_command.o ABSOLUTE
    ../clib/armsys.c                         0x00000000   Number         0  argv_veneer.o ABSOLUTE
    ../clib/armsys.c                         0x00000000   Number         0  _get_argv.o ABSOLUTE
    ../clib/armsys.c                         0x00000000   Number         0  argv_veneer.o ABSOLUTE
    ../clib/armsys.c                         0x00000000   Number         0  _get_argv_nomalloc.o ABSOLUTE
    ../clib/armsys.c                         0x00000000   Number         0  no_argv.o ABSOLUTE
    ../clib/heap1.c                          0x00000000   Number         0  h1_free_mt.o ABSOLUTE
    ../clib/heap1.c                          0x00000000   Number         0  h1_alloc_mt.o ABSOLUTE
    ../clib/heap1.c                          0x00000000   Number         0  h1_free.o ABSOLUTE
    ../clib/heap1.c                          0x00000000   Number         0  h1_alloc.o ABSOLUTE
    ../clib/heap1.c                          0x00000000   Number         0  h1_init_mt.o ABSOLUTE
    ../clib/heap1.c                          0x00000000   Number         0  h1_extend.o ABSOLUTE
    ../clib/heap1.c                          0x00000000   Number         0  h1_extend_mt.o ABSOLUTE
    ../clib/heap1.c                          0x00000000   Number         0  h1_init.o ABSOLUTE
    ../clib/heap1.c                          0x00000000   Number         0  h1_final_mt.o ABSOLUTE
    ../clib/heap1.c                          0x00000000   Number         0  h1_final.o ABSOLUTE
    ../clib/heap2.c                          0x00000000   Number         0  heap2.o ABSOLUTE
    ../clib/heap2.c                          0x00000000   Number         0  heap2mt.o ABSOLUTE
    ../clib/heap2.c                          0x00000000   Number         0  fdtree.o ABSOLUTE
    ../clib/heapalloc.c                      0x00000000   Number         0  hrguard.o ABSOLUTE
    ../clib/heapalloc.c                      0x00000000   Number         0  maybetermalloc2.o ABSOLUTE
    ../clib/heapalloc.c                      0x00000000   Number         0  hguard.o ABSOLUTE
    ../clib/heapalloc.c                      0x00000000   Number         0  maybetermalloc2.o ABSOLUTE
    ../clib/heapalloc.c                      0x00000000   Number         0  heapstubs.o ABSOLUTE
    ../clib/heapalloc.c                      0x00000000   Number         0  free.o ABSOLUTE
    ../clib/heapalloc.c                      0x00000000   Number         0  malloc.o ABSOLUTE
    ../clib/heapalloc.c                      0x00000000   Number         0  maybetermalloc1.o ABSOLUTE
    ../clib/heapalloc.c                      0x00000000   Number         0  maybetermalloc1.o ABSOLUTE
    ../clib/heapalloc.c                      0x00000000   Number         0  init_alloc.o ABSOLUTE
    ../clib/heapalloc.c                      0x00000000   Number         0  term_alloc.o ABSOLUTE
    ../clib/heapaux.c                        0x00000000   Number         0  heapauxi.o ABSOLUTE
    ../clib/heapaux.c                        0x00000000   Number         0  heapauxa.o ABSOLUTE
    ../clib/libinit.s                        0x00000000   Number         0  libshutdown2.o ABSOLUTE
    ../clib/libinit.s                        0x00000000   Number         0  libinit2.o ABSOLUTE
    ../clib/libinit.s                        0x00000000   Number         0  libinit.o ABSOLUTE
    ../clib/libinit.s                        0x00000000   Number         0  libshutdown.o ABSOLUTE
    ../clib/longlong.s                       0x00000000   Number         0  lludivv7m.o ABSOLUTE
    ../clib/memcpset.s                       0x00000000   Number         0  rt_memcpy_v6.o ABSOLUTE
    ../clib/memcpset.s                       0x00000000   Number         0  rt_memcpy_w.o ABSOLUTE
    ../clib/signal.c                         0x00000000   Number         0  defsig_segv_inner.o ABSOLUTE
    ../clib/signal.c                         0x00000000   Number         0  defsig_cppl_inner.o ABSOLUTE
    ../clib/signal.c                         0x00000000   Number         0  defsig_pvfn_inner.o ABSOLUTE
    ../clib/signal.c                         0x00000000   Number         0  defsig_stak_inner.o ABSOLUTE
    ../clib/signal.c                         0x00000000   Number         0  defsig_rtred_inner.o ABSOLUTE
    ../clib/signal.c                         0x00000000   Number         0  defsig_abrt_inner.o ABSOLUTE
    ../clib/signal.c                         0x00000000   Number         0  defsig_fpe_inner.o ABSOLUTE
    ../clib/signal.c                         0x00000000   Number         0  defsig_general.o ABSOLUTE
    ../clib/signal.c                         0x00000000   Number         0  __raise.o ABSOLUTE
    ../clib/signal.c                         0x00000000   Number         0  defsig_rtmem_formal.o ABSOLUTE
    ../clib/signal.c                         0x00000000   Number         0  defsig_rtmem_inner.o ABSOLUTE
    ../clib/signal.c                         0x00000000   Number         0  defsig_fpe_formal.o ABSOLUTE
    ../clib/signal.c                         0x00000000   Number         0  defsig_fpe_outer.o ABSOLUTE
    ../clib/signal.c                         0x00000000   Number         0  defsig_exit.o ABSOLUTE
    ../clib/signal.c                         0x00000000   Number         0  defsig_rtmem_outer.o ABSOLUTE
    ../clib/signal.c                         0x00000000   Number         0  defsig_other.o ABSOLUTE
    ../clib/signal.s                         0x00000000   Number         0  defsig.o ABSOLUTE
    ../clib/stdlib.c                         0x00000000   Number         0  exit.o ABSOLUTE
    ../fplib/fpinit.s                        0x00000000   Number         0  fpinit.o ABSOLUTE
    ..\CMSIS\src\arm\startup_stm32f10x_hd.s  0x00000000   Number         0  startup_stm32f10x_hd.o ABSOLUTE
    ..\CMSIS\src\system_stm32f10x.c          0x00000000   Number         0  system_stm32f10x.o ABSOLUTE
    ..\EVAL\src\stm3210x_eval.c              0x00000000   Number         0  stm3210x_eval.o ABSOLUTE
    ..\EVAL\src\stm3210x_eval_sdio_sd.c      0x00000000   Number         0  stm3210x_eval_sdio_sd.o ABSOLUTE
    ..\FatFs\src\diskio.c                    0x00000000   Number         0  diskio.o ABSOLUTE
    ..\FatFs\src\ff.c                        0x00000000   Number         0  ff.o ABSOLUTE
    ..\FatFs\src\ff_gen_drv.c                0x00000000   Number         0  ff_gen_drv.o ABSOLUTE
    ..\FatFs\src\option\syscall.c            0x00000000   Number         0  syscall.o ABSOLUTE
    ..\FatFs\src\option\unicode.c            0x00000000   Number         0  unicode.o ABSOLUTE
    ..\FatFs\src\sd_diskio.c                 0x00000000   Number         0  sd_diskio.o ABSOLUTE
    ..\STM32F10x_StdPeriph_Driver\src\misc.c 0x00000000   Number         0  misc.o ABSOLUTE
    ..\STM32F10x_StdPeriph_Driver\src\stm32f10x_adc.c 0x00000000   Number         0  stm32f10x_adc.o ABSOLUTE
    ..\STM32F10x_StdPeriph_Driver\src\stm32f10x_bkp.c 0x00000000   Number         0  stm32f10x_bkp.o ABSOLUTE
    ..\STM32F10x_StdPeriph_Driver\src\stm32f10x_can.c 0x00000000   Number         0  stm32f10x_can.o ABSOLUTE
    ..\STM32F10x_StdPeriph_Driver\src\stm32f10x_cec.c 0x00000000   Number         0  stm32f10x_cec.o ABSOLUTE
    ..\STM32F10x_StdPeriph_Driver\src\stm32f10x_crc.c 0x00000000   Number         0  stm32f10x_crc.o ABSOLUTE
    ..\STM32F10x_StdPeriph_Driver\src\stm32f10x_dac.c 0x00000000   Number         0  stm32f10x_dac.o ABSOLUTE
    ..\STM32F10x_StdPeriph_Driver\src\stm32f10x_dbgmcu.c 0x00000000   Number         0  stm32f10x_dbgmcu.o ABSOLUTE
    ..\STM32F10x_StdPeriph_Driver\src\stm32f10x_dma.c 0x00000000   Number         0  stm32f10x_dma.o ABSOLUTE
    ..\STM32F10x_StdPeriph_Driver\src\stm32f10x_exti.c 0x00000000   Number         0  stm32f10x_exti.o ABSOLUTE
    ..\STM32F10x_StdPeriph_Driver\src\stm32f10x_flash.c 0x00000000   Number         0  stm32f10x_flash.o ABSOLUTE
    ..\STM32F10x_StdPeriph_Driver\src\stm32f10x_fsmc.c 0x00000000   Number         0  stm32f10x_fsmc.o ABSOLUTE
    ..\STM32F10x_StdPeriph_Driver\src\stm32f10x_gpio.c 0x00000000   Number         0  stm32f10x_gpio.o ABSOLUTE
    ..\STM32F10x_StdPeriph_Driver\src\stm32f10x_i2c.c 0x00000000   Number         0  stm32f10x_i2c.o ABSOLUTE
    ..\STM32F10x_StdPeriph_Driver\src\stm32f10x_iwdg.c 0x00000000   Number         0  stm32f10x_iwdg.o ABSOLUTE
    ..\STM32F10x_StdPeriph_Driver\src\stm32f10x_pwr.c 0x00000000   Number         0  stm32f10x_pwr.o ABSOLUTE
    ..\STM32F10x_StdPeriph_Driver\src\stm32f10x_rcc.c 0x00000000   Number         0  stm32f10x_rcc.o ABSOLUTE
    ..\STM32F10x_StdPeriph_Driver\src\stm32f10x_rtc.c 0x00000000   Number         0  stm32f10x_rtc.o ABSOLUTE
    ..\STM32F10x_StdPeriph_Driver\src\stm32f10x_sdio.c 0x00000000   Number         0  stm32f10x_sdio.o ABSOLUTE
    ..\STM32F10x_StdPeriph_Driver\src\stm32f10x_spi.c 0x00000000   Number         0  stm32f10x_spi.o ABSOLUTE
    ..\STM32F10x_StdPeriph_Driver\src\stm32f10x_tim.c 0x00000000   Number         0  stm32f10x_tim.o ABSOLUTE
    ..\STM32F10x_StdPeriph_Driver\src\stm32f10x_usart.c 0x00000000   Number         0  stm32f10x_usart.o ABSOLUTE
    ..\STM32F10x_StdPeriph_Driver\src\stm32f10x_wwdg.c 0x00000000   Number         0  stm32f10x_wwdg.o ABSOLUTE
    ..\STM32_USB-FS-Device_Driver\src\usb_core.c 0x00000000   Number         0  usb_core.o ABSOLUTE
    ..\STM32_USB-FS-Device_Driver\src\usb_init.c 0x00000000   Number         0  usb_init.o ABSOLUTE
    ..\STM32_USB-FS-Device_Driver\src\usb_int.c 0x00000000   Number         0  usb_int.o ABSOLUTE
    ..\STM32_USB-FS-Device_Driver\src\usb_mem.c 0x00000000   Number         0  usb_mem.o ABSOLUTE
    ..\STM32_USB-FS-Device_Driver\src\usb_regs.c 0x00000000   Number         0  usb_regs.o ABSOLUTE
    ..\STM32_USB-FS-Device_Driver\src\usb_sil.c 0x00000000   Number         0  usb_sil.o ABSOLUTE
    ..\User\src\communication.c              0x00000000   Number         0  communication.o ABSOLUTE
    ..\User\src\ctrl.c                       0x00000000   Number         0  ctrl.o ABSOLUTE
    ..\User\src\db.c                         0x00000000   Number         0  db.o ABSOLUTE
    ..\User\src\display.c                    0x00000000   Number         0  display.o ABSOLUTE
    ..\User\src\hw_config.c                  0x00000000   Number         0  hw_config.o ABSOLUTE
    ..\User\src\lcd.c                        0x00000000   Number         0  lcd.o ABSOLUTE
    ..\User\src\main.c                       0x00000000   Number         0  main.o ABSOLUTE
    ..\User\src\mass_mal.c                   0x00000000   Number         0  mass_mal.o ABSOLUTE
    ..\User\src\spi.c                        0x00000000   Number         0  spi.o ABSOLUTE
    ..\User\src\stm32_it.c                   0x00000000   Number         0  stm32_it.o ABSOLUTE
    ..\User\src\usb_desc.c                   0x00000000   Number         0  usb_desc.o ABSOLUTE
    ..\User\src\usb_endp.c                   0x00000000   Number         0  usb_endp.o ABSOLUTE
    ..\User\src\usb_istr.c                   0x00000000   Number         0  usb_istr.o ABSOLUTE
    ..\User\src\usb_prop.c                   0x00000000   Number         0  usb_prop.o ABSOLUTE
    ..\User\src\usb_pwr.c                    0x00000000   Number         0  usb_pwr.o ABSOLUTE
    ..\\CMSIS\\src\\system_stm32f10x.c       0x00000000   Number         0  system_stm32f10x.o ABSOLUTE
    ..\\EVAL\\src\\stm3210x_eval.c           0x00000000   Number         0  stm3210x_eval.o ABSOLUTE
    ..\\EVAL\\src\\stm3210x_eval_sdio_sd.c   0x00000000   Number         0  stm3210x_eval_sdio_sd.o ABSOLUTE
    ..\\FatFs\\src\\diskio.c                 0x00000000   Number         0  diskio.o ABSOLUTE
    ..\\FatFs\\src\\ff.c                     0x00000000   Number         0  ff.o ABSOLUTE
    ..\\FatFs\\src\\ff_gen_drv.c             0x00000000   Number         0  ff_gen_drv.o ABSOLUTE
    ..\\FatFs\\src\\option\\syscall.c        0x00000000   Number         0  syscall.o ABSOLUTE
    ..\\FatFs\\src\\option\\unicode.c        0x00000000   Number         0  unicode.o ABSOLUTE
    ..\\FatFs\\src\\sd_diskio.c              0x00000000   Number         0  sd_diskio.o ABSOLUTE
    ..\\STM32F10x_StdPeriph_Driver\\src\\misc.c 0x00000000   Number         0  misc.o ABSOLUTE
    ..\\STM32F10x_StdPeriph_Driver\\src\\stm32f10x_adc.c 0x00000000   Number         0  stm32f10x_adc.o ABSOLUTE
    ..\\STM32F10x_StdPeriph_Driver\\src\\stm32f10x_bkp.c 0x00000000   Number         0  stm32f10x_bkp.o ABSOLUTE
    ..\\STM32F10x_StdPeriph_Driver\\src\\stm32f10x_can.c 0x00000000   Number         0  stm32f10x_can.o ABSOLUTE
    ..\\STM32F10x_StdPeriph_Driver\\src\\stm32f10x_cec.c 0x00000000   Number         0  stm32f10x_cec.o ABSOLUTE
    ..\\STM32F10x_StdPeriph_Driver\\src\\stm32f10x_crc.c 0x00000000   Number         0  stm32f10x_crc.o ABSOLUTE
    ..\\STM32F10x_StdPeriph_Driver\\src\\stm32f10x_dac.c 0x00000000   Number         0  stm32f10x_dac.o ABSOLUTE
    ..\\STM32F10x_StdPeriph_Driver\\src\\stm32f10x_dbgmcu.c 0x00000000   Number         0  stm32f10x_dbgmcu.o ABSOLUTE
    ..\\STM32F10x_StdPeriph_Driver\\src\\stm32f10x_dma.c 0x00000000   Number         0  stm32f10x_dma.o ABSOLUTE
    ..\\STM32F10x_StdPeriph_Driver\\src\\stm32f10x_exti.c 0x00000000   Number         0  stm32f10x_exti.o ABSOLUTE
    ..\\STM32F10x_StdPeriph_Driver\\src\\stm32f10x_flash.c 0x00000000   Number         0  stm32f10x_flash.o ABSOLUTE
    ..\\STM32F10x_StdPeriph_Driver\\src\\stm32f10x_fsmc.c 0x00000000   Number         0  stm32f10x_fsmc.o ABSOLUTE
    ..\\STM32F10x_StdPeriph_Driver\\src\\stm32f10x_gpio.c 0x00000000   Number         0  stm32f10x_gpio.o ABSOLUTE
    ..\\STM32F10x_StdPeriph_Driver\\src\\stm32f10x_i2c.c 0x00000000   Number         0  stm32f10x_i2c.o ABSOLUTE
    ..\\STM32F10x_StdPeriph_Driver\\src\\stm32f10x_iwdg.c 0x00000000   Number         0  stm32f10x_iwdg.o ABSOLUTE
    ..\\STM32F10x_StdPeriph_Driver\\src\\stm32f10x_pwr.c 0x00000000   Number         0  stm32f10x_pwr.o ABSOLUTE
    ..\\STM32F10x_StdPeriph_Driver\\src\\stm32f10x_rcc.c 0x00000000   Number         0  stm32f10x_rcc.o ABSOLUTE
    ..\\STM32F10x_StdPeriph_Driver\\src\\stm32f10x_rtc.c 0x00000000   Number         0  stm32f10x_rtc.o ABSOLUTE
    ..\\STM32F10x_StdPeriph_Driver\\src\\stm32f10x_sdio.c 0x00000000   Number         0  stm32f10x_sdio.o ABSOLUTE
    ..\\STM32F10x_StdPeriph_Driver\\src\\stm32f10x_spi.c 0x00000000   Number         0  stm32f10x_spi.o ABSOLUTE
    ..\\STM32F10x_StdPeriph_Driver\\src\\stm32f10x_tim.c 0x00000000   Number         0  stm32f10x_tim.o ABSOLUTE
    ..\\STM32F10x_StdPeriph_Driver\\src\\stm32f10x_usart.c 0x00000000   Number         0  stm32f10x_usart.o ABSOLUTE
    ..\\STM32F10x_StdPeriph_Driver\\src\\stm32f10x_wwdg.c 0x00000000   Number         0  stm32f10x_wwdg.o ABSOLUTE
    ..\\STM32_USB-FS-Device_Driver\\src\\usb_core.c 0x00000000   Number         0  usb_core.o ABSOLUTE
    ..\\STM32_USB-FS-Device_Driver\\src\\usb_init.c 0x00000000   Number         0  usb_init.o ABSOLUTE
    ..\\STM32_USB-FS-Device_Driver\\src\\usb_int.c 0x00000000   Number         0  usb_int.o ABSOLUTE
    ..\\STM32_USB-FS-Device_Driver\\src\\usb_mem.c 0x00000000   Number         0  usb_mem.o ABSOLUTE
    ..\\STM32_USB-FS-Device_Driver\\src\\usb_regs.c 0x00000000   Number         0  usb_regs.o ABSOLUTE
    ..\\STM32_USB-FS-Device_Driver\\src\\usb_sil.c 0x00000000   Number         0  usb_sil.o ABSOLUTE
    ..\\User\\src\\communication.c           0x00000000   Number         0  communication.o ABSOLUTE
    ..\\User\\src\\ctrl.c                    0x00000000   Number         0  ctrl.o ABSOLUTE
    ..\\User\\src\\db.c                      0x00000000   Number         0  db.o ABSOLUTE
    ..\\User\\src\\display.c                 0x00000000   Number         0  display.o ABSOLUTE
    ..\\User\\src\\hw_config.c               0x00000000   Number         0  hw_config.o ABSOLUTE
    ..\\User\\src\\lcd.c                     0x00000000   Number         0  lcd.o ABSOLUTE
    ..\\User\\src\\main.c                    0x00000000   Number         0  main.o ABSOLUTE
    ..\\User\\src\\mass_mal.c                0x00000000   Number         0  mass_mal.o ABSOLUTE
    ..\\User\\src\\spi.c                     0x00000000   Number         0  spi.o ABSOLUTE
    ..\\User\\src\\stm32_it.c                0x00000000   Number         0  stm32_it.o ABSOLUTE
    ..\\User\\src\\usb_desc.c                0x00000000   Number         0  usb_desc.o ABSOLUTE
    ..\\User\\src\\usb_endp.c                0x00000000   Number         0  usb_endp.o ABSOLUTE
    ..\\User\\src\\usb_istr.c                0x00000000   Number         0  usb_istr.o ABSOLUTE
    ..\\User\\src\\usb_prop.c                0x00000000   Number         0  usb_prop.o ABSOLUTE
    ..\\User\\src\\usb_pwr.c                 0x00000000   Number         0  usb_pwr.o ABSOLUTE
    dc.s                                     0x00000000   Number         0  dc.o ABSOLUTE
    RESET                                    0x08000000   Section      304  startup_stm32f10x_hd.o(RESET)
    !!!main                                  0x08000130   Section        8  __main.o(!!!main)
    !!!scatter                               0x08000138   Section       52  __scatter.o(!!!scatter)
    !!dczerorl2                              0x0800016c   Section       90  __dczerorl2.o(!!dczerorl2)
    !!handler_zi                             0x080001c8   Section       28  __scatter_zi.o(!!handler_zi)
    .ARM.Collect$$libinit$$00000000          0x080001e4   Section        2  libinit.o(.ARM.Collect$$libinit$$00000000)
    .ARM.Collect$$libinit$$00000002          0x080001e6   Section        0  libinit2.o(.ARM.Collect$$libinit$$00000002)
    .ARM.Collect$$libinit$$00000003          0x080001e6   Section        8  libinit2.o(.ARM.Collect$$libinit$$00000003)
    .ARM.Collect$$libinit$$00000008          0x080001ee   Section        0  libinit2.o(.ARM.Collect$$libinit$$00000008)
    .ARM.Collect$$libinit$$0000000A          0x080001ee   Section        0  libinit2.o(.ARM.Collect$$libinit$$0000000A)
    .ARM.Collect$$libinit$$0000000C          0x080001ee   Section        0  libinit2.o(.ARM.Collect$$libinit$$0000000C)
    .ARM.Collect$$libinit$$0000000F          0x080001ee   Section        0  libinit2.o(.ARM.Collect$$libinit$$0000000F)
    .ARM.Collect$$libinit$$00000011          0x080001ee   Section        0  libinit2.o(.ARM.Collect$$libinit$$00000011)
    .ARM.Collect$$libinit$$00000013          0x080001ee   Section        0  libinit2.o(.ARM.Collect$$libinit$$00000013)
    .ARM.Collect$$libinit$$00000015          0x080001ee   Section        0  libinit2.o(.ARM.Collect$$libinit$$00000015)
    .ARM.Collect$$libinit$$00000017          0x080001ee   Section        0  libinit2.o(.ARM.Collect$$libinit$$00000017)
    .ARM.Collect$$libinit$$00000019          0x080001ee   Section        0  libinit2.o(.ARM.Collect$$libinit$$00000019)
    .ARM.Collect$$libinit$$0000001B          0x080001ee   Section        0  libinit2.o(.ARM.Collect$$libinit$$0000001B)
    .ARM.Collect$$libinit$$0000001D          0x080001ee   Section        0  libinit2.o(.ARM.Collect$$libinit$$0000001D)
    .ARM.Collect$$libinit$$0000001F          0x080001ee   Section        0  libinit2.o(.ARM.Collect$$libinit$$0000001F)
    .ARM.Collect$$libinit$$00000021          0x080001ee   Section        0  libinit2.o(.ARM.Collect$$libinit$$00000021)
    .ARM.Collect$$libinit$$00000023          0x080001ee   Section        0  libinit2.o(.ARM.Collect$$libinit$$00000023)
    .ARM.Collect$$libinit$$0000002A          0x080001ee   Section        0  libinit2.o(.ARM.Collect$$libinit$$0000002A)
    .ARM.Collect$$libinit$$0000002C          0x080001ee   Section        0  libinit2.o(.ARM.Collect$$libinit$$0000002C)
    .ARM.Collect$$libinit$$0000002E          0x080001ee   Section        0  libinit2.o(.ARM.Collect$$libinit$$0000002E)
    .ARM.Collect$$libinit$$00000030          0x080001ee   Section        0  libinit2.o(.ARM.Collect$$libinit$$00000030)
    .ARM.Collect$$libinit$$00000031          0x080001ee   Section        2  libinit2.o(.ARM.Collect$$libinit$$00000031)
    .ARM.Collect$$libshutdown$$00000000      0x080001f0   Section        2  libshutdown.o(.ARM.Collect$$libshutdown$$00000000)
    .ARM.Collect$$libshutdown$$00000003      0x080001f2   Section        0  libshutdown2.o(.ARM.Collect$$libshutdown$$00000003)
    .ARM.Collect$$libshutdown$$00000006      0x080001f2   Section        0  libshutdown2.o(.ARM.Collect$$libshutdown$$00000006)
    .ARM.Collect$$libshutdown$$00000009      0x080001f2   Section        0  libshutdown2.o(.ARM.Collect$$libshutdown$$00000009)
    .ARM.Collect$$libshutdown$$0000000B      0x080001f2   Section        0  libshutdown2.o(.ARM.Collect$$libshutdown$$0000000B)
    .ARM.Collect$$libshutdown$$0000000E      0x080001f2   Section        0  libshutdown2.o(.ARM.Collect$$libshutdown$$0000000E)
    .ARM.Collect$$libshutdown$$0000000F      0x080001f2   Section        2  libshutdown2.o(.ARM.Collect$$libshutdown$$0000000F)
    .ARM.Collect$$rtentry$$00000000          0x080001f4   Section        0  rtentry.o(.ARM.Collect$$rtentry$$00000000)
    .ARM.Collect$$rtentry$$00000002          0x080001f4   Section        0  rtentry2.o(.ARM.Collect$$rtentry$$00000002)
    .ARM.Collect$$rtentry$$00000004          0x080001f4   Section        6  rtentry4.o(.ARM.Collect$$rtentry$$00000004)
    .ARM.Collect$$rtentry$$00000009          0x080001fa   Section        0  rtentry2.o(.ARM.Collect$$rtentry$$00000009)
    .ARM.Collect$$rtentry$$0000000A          0x080001fa   Section        4  rtentry2.o(.ARM.Collect$$rtentry$$0000000A)
    .ARM.Collect$$rtentry$$0000000C          0x080001fe   Section        0  rtentry2.o(.ARM.Collect$$rtentry$$0000000C)
    .ARM.Collect$$rtentry$$0000000D          0x080001fe   Section        8  rtentry2.o(.ARM.Collect$$rtentry$$0000000D)
    .ARM.Collect$$rtexit$$00000000           0x08000206   Section        2  rtexit.o(.ARM.Collect$$rtexit$$00000000)
    .ARM.Collect$$rtexit$$00000002           0x08000208   Section        0  rtexit2.o(.ARM.Collect$$rtexit$$00000002)
    .ARM.Collect$$rtexit$$00000003           0x08000208   Section        4  rtexit2.o(.ARM.Collect$$rtexit$$00000003)
    .ARM.Collect$$rtexit$$00000004           0x0800020c   Section        6  rtexit2.o(.ARM.Collect$$rtexit$$00000004)
    .emb_text                                0x08000214   Section        0  maybetermalloc1.o(.emb_text)
    .text                                    0x08000214   Section        0  hw_config.o(.text)
    RCC_Config                               0x0800021f   Thumb Code   126  hw_config.o(.text)
    IntToUnicode                             0x080004e7   Thumb Code    62  hw_config.o(.text)
    .text                                    0x08000574   Section        0  main.o(.text)
    .text                                    0x0800060c   Section        0  mass_mal.o(.text)
    .text                                    0x08000780   Section        0  stm32_it.o(.text)
    .text                                    0x080008b0   Section        0  system_stm32f10x.o(.text)
    SetSysClockTo72                          0x080008b1   Thumb Code   214  system_stm32f10x.o(.text)
    SetSysClock                              0x08000987   Thumb Code     8  system_stm32f10x.o(.text)
    .text                                    0x08000a90   Section        0  usb_endp.o(.text)
    .text                                    0x08000af4   Section        0  usb_istr.o(.text)
    .text                                    0x08000cb8   Section        0  usb_prop.o(.text)
    .text                                    0x08000f1c   Section        0  usb_pwr.o(.text)
    .text                                    0x08001160   Section        0  display.o(.text)
    .text                                    0x08003c6c   Section        0  lcd.o(.text)
    .text                                    0x08004398   Section        0  spi.o(.text)
    .text                                    0x08004480   Section        0  ctrl.o(.text)
    .text                                    0x08006508   Section        0  db.o(.text)
    .text                                    0x0800753c   Section        0  communication.o(.text)
    .text                                    0x08007a1c   Section       64  startup_stm32f10x_hd.o(.text)
    .text                                    0x08007a5c   Section        0  usb_core.o(.text)
    DataStageOut                             0x08007e9b   Thumb Code   166  usb_core.o(.text)
    DataStageIn                              0x08007f41   Thumb Code   166  usb_core.o(.text)
    NoData_Setup0                            0x08007fe7   Thumb Code   290  usb_core.o(.text)
    Data_Setup0                              0x08008109   Thumb Code   678  usb_core.o(.text)
    .text                                    0x080085ac   Section        0  usb_init.o(.text)
    .text                                    0x080085e8   Section        0  usb_int.o(.text)
    .text                                    0x08008924   Section        0  usb_mem.o(.text)
    .text                                    0x08008980   Section        0  usb_regs.o(.text)
    .text                                    0x08009188   Section        0  usb_sil.o(.text)
    .text                                    0x08009208   Section        0  misc.o(.text)
    .text                                    0x080092e4   Section        0  stm32f10x_adc.o(.text)
    .text                                    0x08009734   Section        0  stm32f10x_bkp.o(.text)
    .text                                    0x080097f8   Section        0  stm32f10x_dma.o(.text)
    .text                                    0x08009a4c   Section        0  stm32f10x_exti.o(.text)
    .text                                    0x08009b68   Section        0  stm32f10x_flash.o(.text)
    .text                                    0x0800a124   Section        0  stm32f10x_gpio.o(.text)
    .text                                    0x0800a480   Section        0  stm32f10x_iwdg.o(.text)
    .text                                    0x0800a4c0   Section        0  stm32f10x_pwr.o(.text)
    .text                                    0x0800a58c   Section        0  stm32f10x_rcc.o(.text)
    .text                                    0x0800a930   Section        0  stm32f10x_rtc.o(.text)
    .text                                    0x0800aa90   Section        0  stm32f10x_sdio.o(.text)
    .text                                    0x0800ac54   Section        0  stm32f10x_tim.o(.text)
    TI4_Config                               0x0800b0fb   Thumb Code   130  stm32f10x_tim.o(.text)
    TI3_Config                               0x0800b18f   Thumb Code   122  stm32f10x_tim.o(.text)
    TI2_Config                               0x0800b223   Thumb Code   130  stm32f10x_tim.o(.text)
    TI1_Config                               0x0800b2b7   Thumb Code   108  stm32f10x_tim.o(.text)
    .text                                    0x0800ba70   Section        0  stm32f10x_usart.o(.text)
    .text                                    0x0800be78   Section        0  stm3210x_eval.o(.text)
    mem_set                                  0x0800c3e5   Thumb Code    20  stm3210x_eval.o(.text)
    .text                                    0x0800c434   Section        0  stm3210x_eval_sdio_sd.o(.text)
    CmdResp1Error                            0x0800c43d   Thumb Code   298  stm3210x_eval_sdio_sd.o(.text)
    FindSCR                                  0x0800c567   Thumb Code   386  stm3210x_eval_sdio_sd.o(.text)
    SDEnWideBus                              0x0800c6e9   Thumb Code   274  stm3210x_eval_sdio_sd.o(.text)
    CmdResp2Error                            0x0800cbb5   Thumb Code    70  stm3210x_eval_sdio_sd.o(.text)
    CmdResp6Error                            0x0800cbfb   Thumb Code   182  stm3210x_eval_sdio_sd.o(.text)
    CmdResp3Error                            0x0800cdd7   Thumb Code    52  stm3210x_eval_sdio_sd.o(.text)
    CmdResp7Error                            0x0800ce0b   Thumb Code    72  stm3210x_eval_sdio_sd.o(.text)
    CmdError                                 0x0800ce53   Thumb Code    44  stm3210x_eval_sdio_sd.o(.text)
    IsCardProgramming                        0x0800d857   Thumb Code   438  stm3210x_eval_sdio_sd.o(.text)
    .text                                    0x0800dc30   Section        0  diskio.o(.text)
    .text                                    0x0800dce0   Section        0  ff.o(.text)
    mem_cpy                                  0x0800dce1   Thumb Code    26  ff.o(.text)
    mem_set                                  0x0800dcfb   Thumb Code    20  ff.o(.text)
    mem_cmp                                  0x0800dd0f   Thumb Code    38  ff.o(.text)
    chk_chr                                  0x0800dd35   Thumb Code    20  ff.o(.text)
    chk_lock                                 0x0800dd49   Thumb Code   140  ff.o(.text)
    enq_lock                                 0x0800ddd5   Thumb Code    36  ff.o(.text)
    inc_lock                                 0x0800ddf9   Thumb Code   226  ff.o(.text)
    dec_lock                                 0x0800dedb   Thumb Code    72  ff.o(.text)
    clear_lock                               0x0800df23   Thumb Code    42  ff.o(.text)
    sync_window                              0x0800df4d   Thumb Code    90  ff.o(.text)
    move_window                              0x0800dfa7   Thumb Code    54  ff.o(.text)
    sync_fs                                  0x0800dfdd   Thumb Code   244  ff.o(.text)
    remove_chain                             0x0800e30f   Thumb Code   122  ff.o(.text)
    create_chain                             0x0800e389   Thumb Code   234  ff.o(.text)
    clmt_clust                               0x0800e473   Thumb Code    56  ff.o(.text)
    dir_sdi                                  0x0800e4ab   Thumb Code   200  ff.o(.text)
    dir_next                                 0x0800e573   Thumb Code   348  ff.o(.text)
    dir_alloc                                0x0800e6cf   Thumb Code   100  ff.o(.text)
    ld_clust                                 0x0800e733   Thumb Code    34  ff.o(.text)
    st_clust                                 0x0800e755   Thumb Code    16  ff.o(.text)
    cmp_lfn                                  0x0800e765   Thumb Code   138  ff.o(.text)
    pick_lfn                                 0x0800e7ef   Thumb Code   112  ff.o(.text)
    fit_lfn                                  0x0800e85f   Thumb Code   122  ff.o(.text)
    gen_numname                              0x0800e8d9   Thumb Code   172  ff.o(.text)
    sum_sfn                                  0x0800e985   Thumb Code    32  ff.o(.text)
    dir_find                                 0x0800e9a5   Thumb Code   258  ff.o(.text)
    dir_read                                 0x0800eaa7   Thumb Code   226  ff.o(.text)
    dir_register                             0x0800eb89   Thumb Code   330  ff.o(.text)
    dir_remove                               0x0800ecd3   Thumb Code   126  ff.o(.text)
    get_fileinfo                             0x0800ed51   Thumb Code   262  ff.o(.text)
    create_name                              0x0800ee57   Thumb Code   534  ff.o(.text)
    follow_path                              0x0800f06d   Thumb Code   156  ff.o(.text)
    get_ldnumber                             0x0800f109   Thumb Code    72  ff.o(.text)
    check_fs                                 0x0800f151   Thumb Code   146  ff.o(.text)
    find_volume                              0x0800f1e3   Thumb Code   990  ff.o(.text)
    validate                                 0x0800f5c1   Thumb Code    70  ff.o(.text)
    putc_bfd                                 0x08010fe3   Thumb Code    78  ff.o(.text)
    .text                                    0x08011334   Section        0  ff_gen_drv.o(.text)
    .text                                    0x080113bc   Section        0  sd_diskio.o(.text)
    .text                                    0x08011554   Section        0  syscall.o(.text)
    .text                                    0x0801156c   Section        0  unicode.o(.text)
    .text                                    0x080115ec   Section        0  h1_alloc.o(.text)
    .text                                    0x0801164a   Section        0  h1_free.o(.text)
    .text                                    0x08011698   Section      238  lludivv7m.o(.text)
    .text                                    0x08011786   Section      138  rt_memcpy_v6.o(.text)
    .text                                    0x08011810   Section        0  heapauxi.o(.text)
    .text                                    0x08011818   Section        8  rt_heap_descriptor_intlibspace.o(.text)
    .text                                    0x08011820   Section        0  hguard.o(.text)
    .text                                    0x08011824   Section        0  init_alloc.o(.text)
    .text                                    0x080118ae   Section        0  h1_init.o(.text)
    .text                                    0x080118bc   Section      100  rt_memcpy_w.o(.text)
    .text                                    0x08011920   Section        8  libspace.o(.text)
    .text                                    0x08011928   Section        0  h1_extend.o(.text)
    .text                                    0x0801195c   Section        0  defsig_rtmem_outer.o(.text)
    .text                                    0x0801196a   Section        2  use_no_semi.o(.text)
    .text                                    0x0801196c   Section        0  indicate_semi.o(.text)
    .text                                    0x0801196c   Section       74  sys_stackheap_outer.o(.text)
    .text                                    0x080119b6   Section        0  exit.o(.text)
    .text                                    0x080119c2   Section        0  defsig_exit.o(.text)
    .text                                    0x080119cc   Section        0  defsig_rtmem_inner.o(.text)
    .text                                    0x08011a1c   Section        0  sys_exit.o(.text)
    .text                                    0x08011a28   Section        0  defsig_general.o(.text)
    .text                                    0x08011a5a   Section        0  sys_wrch.o(.text)
    .constdata                               0x08011a68   Section      162  usb_desc.o(.constdata)
    .constdata                               0x08011b0a   Section     3178  display.o(.constdata)
    .constdata                               0x08012774   Section     4342  ctrl.o(.constdata)
    .constdata                               0x0801386a   Section      264  db.o(.constdata)
    .constdata                               0x08013974   Section      192  stm3210x_eval.o(.constdata)
    .constdata                               0x08013a34   Section      186  ff.o(.constdata)
    ExCvt                                    0x08013a34   Data         128  ff.o(.constdata)
    LfnOfs                                   0x08013ab4   Data          13  ff.o(.constdata)
    vst                                      0x08013ac2   Data          22  ff.o(.constdata)
    cst                                      0x08013ad8   Data          22  ff.o(.constdata)
    .constdata                               0x08013aee   Section     1216  unicode.o(.constdata)
    Tbl                                      0x08013aee   Data         256  unicode.o(.constdata)
    tbl_lower                                0x08013bee   Data         480  unicode.o(.constdata)
    tbl_upper                                0x08013dce   Data         480  unicode.o(.constdata)
    .ARM.__AT_0x08016000                     0x08016000   Section     2048  db.o(.ARM.__AT_0x08016000)
    .data                                    0x20000000   Section       17  hw_config.o(.data)
    .data                                    0x20000014   Section       20  main.o(.data)
    .data                                    0x20000028   Section       28  mass_mal.o(.data)
    .data                                    0x20000044   Section        2  stm32_it.o(.data)
    TmCnt                                    0x20000044   Data           1  stm32_it.o(.data)
    TmDiv                                    0x20000045   Data           1  stm32_it.o(.data)
    .data                                    0x20000048   Section       20  system_stm32f10x.o(.data)
    .data                                    0x2000005c   Section       26  usb_desc.o(.data)
    .data                                    0x20000078   Section       68  usb_istr.o(.data)
    .data                                    0x200000bc   Section      160  usb_prop.o(.data)
    .data                                    0x2000015c   Section       12  usb_pwr.o(.data)
    .data                                    0x20000168   Section      105  display.o(.data)
    time                                     0x200001cc   Data           4  display.o(.data)
    byCnt                                    0x200001d0   Data           1  display.o(.data)
    .data                                    0x200001d8   Section      128  ctrl.o(.data)
    bKeyProc                                 0x2000024c   Data           1  ctrl.o(.data)
    BtSPCnt                                  0x2000024d   Data           1  ctrl.o(.data)
    BtSNCnt                                  0x2000024e   Data           1  ctrl.o(.data)
    ACOffCnt                                 0x2000024f   Data           1  ctrl.o(.data)
    ACLowCnt                                 0x20000250   Data           1  ctrl.o(.data)
    div                                      0x20000251   Data           1  ctrl.o(.data)
    Div                                      0x20000252   Data           1  ctrl.o(.data)
    Cnt                                      0x20000253   Data           1  ctrl.o(.data)
    bFlash1Hz                                0x20000254   Data           1  ctrl.o(.data)
    FlsDiv                                   0x20000255   Data           1  ctrl.o(.data)
    Cnt                                      0x20000256   Data           1  ctrl.o(.data)
    byWait                                   0x20000257   Data           1  ctrl.o(.data)
    .data                                    0x20000258   Section       21  db.o(.data)
    bFSInit                                  0x2000026c   Data           1  db.o(.data)
    .data                                    0x2000026d   Section        4  communication.o(.data)
    bProc                                    0x20000270   Data           1  communication.o(.data)
    .data                                    0x20000272   Section        3  usb_core.o(.data)
    .data                                    0x20000278   Section       20  usb_init.o(.data)
    .data                                    0x2000028c   Section        4  usb_int.o(.data)
    .data                                    0x20000290   Section       20  stm32f10x_rcc.o(.data)
    APBAHBPrescTable                         0x20000290   Data          16  stm32f10x_rcc.o(.data)
    ADCPrescTable                            0x200002a0   Data           4  stm32f10x_rcc.o(.data)
    .data                                    0x200002a4   Section      138  stm3210x_eval.o(.data)
    daycnt                                   0x2000032c   Data           2  stm3210x_eval.o(.data)
    .data                                    0x20000330   Section       24  stm3210x_eval_sdio_sd.o(.data)
    CardType                                 0x20000330   Data           4  stm3210x_eval_sdio_sd.o(.data)
    RCA                                      0x20000334   Data           4  stm3210x_eval_sdio_sd.o(.data)
    .data                                    0x20000348   Section        6  ff.o(.data)
    FatFs                                    0x20000348   Data           4  ff.o(.data)
    Fsid                                     0x2000034c   Data           2  ff.o(.data)
    .data                                    0x20000350   Section       24  sd_diskio.o(.data)
    Stat                                     0x20000350   Data           1  sd_diskio.o(.data)
    .bss                                     0x20000368   Section       88  mass_mal.o(.bss)
    .bss                                     0x200003c0   Section      128  usb_endp.o(.bss)
    .bss                                     0x20000440   Section       32  usb_pwr.o(.bss)
    .bss                                     0x20000460   Section      424  display.o(.bss)
    .bss                                     0x20000608   Section     1680  lcd.o(.bss)
    .bss                                     0x20000c98   Section      110  ctrl.o(.bss)
    .bss                                     0x20000d08   Section     4314  db.o(.bss)
    .bss                                     0x20001de2   Section      112  communication.o(.bss)
    stConfigData                             0x20001e22   Data          48  communication.o(.bss)
    .bss                                     0x20001e54   Section       28  usb_init.o(.bss)
    .bss                                     0x20001e70   Section      204  stm3210x_eval_sdio_sd.o(.bss)
    CSD_Tab                                  0x20001e70   Data          16  stm3210x_eval_sdio_sd.o(.bss)
    CID_Tab                                  0x20001e80   Data          16  stm3210x_eval_sdio_sd.o(.bss)
    SDSTATUS_Tab                             0x20001e90   Data          16  stm3210x_eval_sdio_sd.o(.bss)
    .bss                                     0x20001f3c   Section       24  ff.o(.bss)
    Files                                    0x20001f3c   Data          24  ff.o(.bss)
    .bss                                     0x20001f54   Section       12  ff_gen_drv.o(.bss)
    .bss                                     0x20001f60   Section       96  libspace.o(.bss)
    HEAP                                     0x20001fc0   Section     1536  startup_stm32f10x_hd.o(HEAP)
    Heap_Mem                                 0x20001fc0   Data        1536  startup_stm32f10x_hd.o(HEAP)
    STACK                                    0x200025c0   Section     1024  startup_stm32f10x_hd.o(STACK)
    Stack_Mem                                0x200025c0   Data        1024  startup_stm32f10x_hd.o(STACK)
    __initial_sp                             0x200029c0   Data           0  startup_stm32f10x_hd.o(STACK)

    Global Symbols

    Symbol Name                              Value     Ov Type        Size  Object(Section)

    BuildAttributes$$THM_ISAv4$P$D$K$B$S$PE$A:L22UL41UL21$X:L11$S22US41US21$IEEE1$IW$USESV6$~STKCKD$USESV7$~SHL$OTIME$ROPI$EBA8$UX$STANDARDLIB$REQ8$PRES8$EABIv2 0x00000000   Number         0  anon$$obj.o ABSOLUTE
    __ARM_use_no_argv                        0x00000000   Number         0  main.o ABSOLUTE
    __ARM_exceptions_init                     - Undefined Weak Reference
    __alloca_initialize                       - Undefined Weak Reference
    __cpp_initialize__aeabi_                  - Undefined Weak Reference
    __cxa_finalize                            - Undefined Weak Reference
    __rt_locale                               - Undefined Weak Reference
    __sigvec_lookup                           - Undefined Weak Reference
    __user_heap_extent                        - Undefined Weak Reference
    _atexit_init                              - Undefined Weak Reference
    _call_atexit_fns                          - Undefined Weak Reference
    _clock_init                               - Undefined Weak Reference
    _fp_trap_init                             - Undefined Weak Reference
    _fp_trap_shutdown                         - Undefined Weak Reference
    _get_lc_collate                           - Undefined Weak Reference
    _get_lc_ctype                             - Undefined Weak Reference
    _get_lc_monetary                          - Undefined Weak Reference
    _get_lc_numeric                           - Undefined Weak Reference
    _get_lc_time                              - Undefined Weak Reference
    _getenv_init                              - Undefined Weak Reference
    _handle_redirection                       - Undefined Weak Reference
    _initio                                   - Undefined Weak Reference
    _mutex_acquire                            - Undefined Weak Reference
    _mutex_free                               - Undefined Weak Reference
    _mutex_release                            - Undefined Weak Reference
    _rand_init                                - Undefined Weak Reference
    _signal_finish                            - Undefined Weak Reference
    _signal_init                              - Undefined Weak Reference
    _terminateio                              - Undefined Weak Reference
    __Vectors_Size                           0x00000130   Number         0  startup_stm32f10x_hd.o ABSOLUTE
    __Vectors                                0x08000000   Data           4  startup_stm32f10x_hd.o(RESET)
    __Vectors_End                            0x08000130   Data           0  startup_stm32f10x_hd.o(RESET)
    __main                                   0x08000131   Thumb Code     8  __main.o(!!!main)
    __scatterload                            0x08000139   Thumb Code     0  __scatter.o(!!!scatter)
    __scatterload_rt2                        0x08000139   Thumb Code    44  __scatter.o(!!!scatter)
    __scatterload_rt2_thumb_only             0x08000139   Thumb Code     0  __scatter.o(!!!scatter)
    __scatterload_null                       0x08000147   Thumb Code     0  __scatter.o(!!!scatter)
    __decompress                             0x0800016d   Thumb Code    90  __dczerorl2.o(!!dczerorl2)
    __decompress1                            0x0800016d   Thumb Code     0  __dczerorl2.o(!!dczerorl2)
    __scatterload_zeroinit                   0x080001c9   Thumb Code    28  __scatter_zi.o(!!handler_zi)
    __rt_lib_init                            0x080001e5   Thumb Code     0  libinit.o(.ARM.Collect$$libinit$$00000000)
    __rt_lib_init_fp_1                       0x080001e7   Thumb Code     0  libinit2.o(.ARM.Collect$$libinit$$00000002)
    __rt_lib_init_heap_2                     0x080001e7   Thumb Code     0  libinit2.o(.ARM.Collect$$libinit$$00000003)
    __rt_lib_init_alloca_1                   0x080001ef   Thumb Code     0  libinit2.o(.ARM.Collect$$libinit$$0000002C)
    __rt_lib_init_argv_1                     0x080001ef   Thumb Code     0  libinit2.o(.ARM.Collect$$libinit$$0000002A)
    __rt_lib_init_atexit_1                   0x080001ef   Thumb Code     0  libinit2.o(.ARM.Collect$$libinit$$00000019)
    __rt_lib_init_clock_1                    0x080001ef   Thumb Code     0  libinit2.o(.ARM.Collect$$libinit$$0000001F)
    __rt_lib_init_cpp_1                      0x080001ef   Thumb Code     0  libinit2.o(.ARM.Collect$$libinit$$00000030)
    __rt_lib_init_exceptions_1               0x080001ef   Thumb Code     0  libinit2.o(.ARM.Collect$$libinit$$0000002E)
    __rt_lib_init_fp_trap_1                  0x080001ef   Thumb Code     0  libinit2.o(.ARM.Collect$$libinit$$0000001D)
    __rt_lib_init_getenv_1                   0x080001ef   Thumb Code     0  libinit2.o(.ARM.Collect$$libinit$$00000021)
    __rt_lib_init_heap_1                     0x080001ef   Thumb Code     0  libinit2.o(.ARM.Collect$$libinit$$00000008)
    __rt_lib_init_lc_collate_1               0x080001ef   Thumb Code     0  libinit2.o(.ARM.Collect$$libinit$$0000000F)
    __rt_lib_init_lc_ctype_1                 0x080001ef   Thumb Code     0  libinit2.o(.ARM.Collect$$libinit$$00000011)
    __rt_lib_init_lc_monetary_1              0x080001ef   Thumb Code     0  libinit2.o(.ARM.Collect$$libinit$$00000013)
    __rt_lib_init_lc_numeric_1               0x080001ef   Thumb Code     0  libinit2.o(.ARM.Collect$$libinit$$00000015)
    __rt_lib_init_lc_time_1                  0x080001ef   Thumb Code     0  libinit2.o(.ARM.Collect$$libinit$$00000017)
    __rt_lib_init_rand_1                     0x080001ef   Thumb Code     0  libinit2.o(.ARM.Collect$$libinit$$0000000C)
    __rt_lib_init_return                     0x080001ef   Thumb Code     0  libinit2.o(.ARM.Collect$$libinit$$00000031)
    __rt_lib_init_signal_1                   0x080001ef   Thumb Code     0  libinit2.o(.ARM.Collect$$libinit$$0000001B)
    __rt_lib_init_stdio_1                    0x080001ef   Thumb Code     0  libinit2.o(.ARM.Collect$$libinit$$00000023)
    __rt_lib_init_user_alloc_1               0x080001ef   Thumb Code     0  libinit2.o(.ARM.Collect$$libinit$$0000000A)
    __rt_lib_shutdown                        0x080001f1   Thumb Code     0  libshutdown.o(.ARM.Collect$$libshutdown$$00000000)
    __rt_lib_shutdown_fp_trap_1              0x080001f3   Thumb Code     0  libshutdown2.o(.ARM.Collect$$libshutdown$$00000006)
    __rt_lib_shutdown_heap_1                 0x080001f3   Thumb Code     0  libshutdown2.o(.ARM.Collect$$libshutdown$$0000000E)
    __rt_lib_shutdown_return                 0x080001f3   Thumb Code     0  libshutdown2.o(.ARM.Collect$$libshutdown$$0000000F)
    __rt_lib_shutdown_signal_1               0x080001f3   Thumb Code     0  libshutdown2.o(.ARM.Collect$$libshutdown$$00000009)
    __rt_lib_shutdown_stdio_1                0x080001f3   Thumb Code     0  libshutdown2.o(.ARM.Collect$$libshutdown$$00000003)
    __rt_lib_shutdown_user_alloc_1           0x080001f3   Thumb Code     0  libshutdown2.o(.ARM.Collect$$libshutdown$$0000000B)
    __rt_entry                               0x080001f5   Thumb Code     0  rtentry.o(.ARM.Collect$$rtentry$$00000000)
    __rt_entry_presh_1                       0x080001f5   Thumb Code     0  rtentry2.o(.ARM.Collect$$rtentry$$00000002)
    __rt_entry_sh                            0x080001f5   Thumb Code     0  rtentry4.o(.ARM.Collect$$rtentry$$00000004)
    __rt_entry_li                            0x080001fb   Thumb Code     0  rtentry2.o(.ARM.Collect$$rtentry$$0000000A)
    __rt_entry_postsh_1                      0x080001fb   Thumb Code     0  rtentry2.o(.ARM.Collect$$rtentry$$00000009)
    __rt_entry_main                          0x080001ff   Thumb Code     0  rtentry2.o(.ARM.Collect$$rtentry$$0000000D)
    __rt_entry_postli_1                      0x080001ff   Thumb Code     0  rtentry2.o(.ARM.Collect$$rtentry$$0000000C)
    __rt_exit                                0x08000207   Thumb Code     0  rtexit.o(.ARM.Collect$$rtexit$$00000000)
    __rt_exit_ls                             0x08000209   Thumb Code     0  rtexit2.o(.ARM.Collect$$rtexit$$00000003)
    __rt_exit_prels_1                        0x08000209   Thumb Code     0  rtexit2.o(.ARM.Collect$$rtexit$$00000002)
    __rt_exit_exit                           0x0800020d   Thumb Code     0  rtexit2.o(.ARM.Collect$$rtexit$$00000004)
    MAL_Config                               0x08000215   Thumb Code    10  hw_config.o(.text)
    _maybe_terminate_alloc                   0x08000215   Thumb Code     0  maybetermalloc1.o(.emb_text)
    Set_System                               0x0800029d   Thumb Code    12  hw_config.o(.text)
    Set_USBClock                             0x080002a9   Thumb Code    18  hw_config.o(.text)
    Enter_LowPowerMode                       0x080002bb   Thumb Code     8  hw_config.o(.text)
    Leave_LowPowerMode                       0x080002c3   Thumb Code    28  hw_config.o(.text)
    USB_Interrupts_Config                    0x080002df   Thumb Code    66  hw_config.o(.text)
    Interrupts_Config                        0x08000321   Thumb Code    98  hw_config.o(.text)
    Led_Config                               0x08000383   Thumb Code    40  hw_config.o(.text)
    Led_RW_ON                                0x080003ab   Thumb Code     2  hw_config.o(.text)
    Led_RW_OFF                               0x080003ad   Thumb Code     2  hw_config.o(.text)
    USB_Configured_LED                       0x080003af   Thumb Code     2  hw_config.o(.text)
    USB_NotConfigured_LED                    0x080003b1   Thumb Code     2  hw_config.o(.text)
    USB_Cable_Config                         0x080003b3   Thumb Code    30  hw_config.o(.text)
    USB_Disconnect_Config                    0x080003d1   Thumb Code    40  hw_config.o(.text)
    USB_Set                                  0x080003f9   Thumb Code    50  hw_config.o(.text)
    TM_Config                                0x0800042b   Thumb Code    74  hw_config.o(.text)
    USART_Config_Default                     0x08000475   Thumb Code    74  hw_config.o(.text)
    _Send_Data_To_Mcp                        0x080004bf   Thumb Code    40  hw_config.o(.text)
    Get_SerialNum                            0x08000525   Thumb Code    42  hw_config.o(.text)
    main                                     0x08000575   Thumb Code   138  main.o(.text)
    MAL_Init                                 0x0800060d   Thumb Code    28  mass_mal.o(.text)
    MAL_Write                                0x08000629   Thumb Code    76  mass_mal.o(.text)
    MAL_Read                                 0x08000675   Thumb Code    72  mass_mal.o(.text)
    MAL_GetStatus                            0x080006bd   Thumb Code   174  mass_mal.o(.text)
    NMI_Handler                              0x08000781   Thumb Code     2  stm32_it.o(.text)
    HardFault_Handler                        0x08000783   Thumb Code     4  stm32_it.o(.text)
    MemManage_Handler                        0x08000787   Thumb Code     4  stm32_it.o(.text)
    BusFault_Handler                         0x0800078b   Thumb Code     4  stm32_it.o(.text)
    UsageFault_Handler                       0x0800078f   Thumb Code     4  stm32_it.o(.text)
    SVC_Handler                              0x08000793   Thumb Code     2  stm32_it.o(.text)
    DebugMon_Handler                         0x08000795   Thumb Code     2  stm32_it.o(.text)
    PendSV_Handler                           0x08000797   Thumb Code     2  stm32_it.o(.text)
    SysTick_Handler                          0x08000799   Thumb Code     2  stm32_it.o(.text)
    USART1_IRQHandler                        0x0800079b   Thumb Code    64  stm32_it.o(.text)
    RTC_IRQHandler                           0x080007db   Thumb Code    38  stm32_it.o(.text)
    USB_LP_CAN1_RX0_IRQHandler               0x08000801   Thumb Code     8  stm32_it.o(.text)
    SDIO_IRQHandler                          0x08000809   Thumb Code     8  stm32_it.o(.text)
    DMA2_Channel4_5_IRQHandler               0x08000811   Thumb Code     8  stm32_it.o(.text)
    USBWakeUp_IRQHandler                     0x08000819   Thumb Code    12  stm32_it.o(.text)
    ADC1_2_IRQHandler                        0x08000825   Thumb Code     2  stm32_it.o(.text)
    TIM1_UP_IRQHandler                       0x08000827   Thumb Code   100  stm32_it.o(.text)
    SystemInit                               0x0800098f   Thumb Code    78  system_stm32f10x.o(.text)
    SystemCoreClockUpdate                    0x080009dd   Thumb Code   142  system_stm32f10x.o(.text)
    EP1_OUT_Callback                         0x08000a91   Thumb Code    74  usb_endp.o(.text)
    EP1_IN_Callback                          0x08000adb   Thumb Code     8  usb_endp.o(.text)
    USB_Istr                                 0x08000af5   Thumb Code   416  usb_istr.o(.text)
    CustomHID_init                           0x08000cb9   Thumb Code    30  usb_prop.o(.text)
    CustomHID_Reset                          0x08000cd7   Thumb Code   168  usb_prop.o(.text)
    CustomHID_SetConfiguration               0x08000d7f   Thumb Code    16  usb_prop.o(.text)
    CustomHID_SetDeviceAddress               0x08000d8f   Thumb Code     8  usb_prop.o(.text)
    CustomHID_Status_In                      0x08000d97   Thumb Code     2  usb_prop.o(.text)
    CustomHID_Status_Out                     0x08000d99   Thumb Code     2  usb_prop.o(.text)
    CustomHID_SetReport_Feature              0x08000d9b   Thumb Code    20  usb_prop.o(.text)
    CustomHID_GetProtocolValue               0x08000daf   Thumb Code    20  usb_prop.o(.text)
    CustomHID_GetHIDDescriptor               0x08000dc3   Thumb Code    14  usb_prop.o(.text)
    CustomHID_GetReportDescriptor            0x08000dd1   Thumb Code    14  usb_prop.o(.text)
    CustomHID_Data_Setup                     0x08000ddf   Thumb Code   142  usb_prop.o(.text)
    CustomHID_SetProtocol                    0x08000e6d   Thumb Code    14  usb_prop.o(.text)
    CustomHID_NoData_Setup                   0x08000e7b   Thumb Code    32  usb_prop.o(.text)
    CustomHID_GetDeviceDescriptor            0x08000e9b   Thumb Code    14  usb_prop.o(.text)
    CustomHID_GetConfigDescriptor            0x08000ea9   Thumb Code    14  usb_prop.o(.text)
    CustomHID_GetStringDescriptor            0x08000eb7   Thumb Code    32  usb_prop.o(.text)
    CustomHID_Get_Interface_Setting          0x08000ed7   Thumb Code    22  usb_prop.o(.text)
    PowerOn                                  0x08000f1d   Thumb Code    54  usb_pwr.o(.text)
    PowerOff                                 0x08000f53   Thumb Code    28  usb_pwr.o(.text)
    Suspend                                  0x08000f6f   Thumb Code   240  usb_pwr.o(.text)
    Resume_Init                              0x0800105f   Thumb Code    30  usb_pwr.o(.text)
    Resume                                   0x0800107d   Thumb Code   194  usb_pwr.o(.text)
    MoveTo                                   0x08001161   Thumb Code    16  display.o(.text)
    DrawDot                                  0x08001171   Thumb Code    70  display.o(.text)
    DrawDotEx                                0x080011b7   Thumb Code    76  display.o(.text)
    DrawDotMode                              0x08001203   Thumb Code   160  display.o(.text)
    DrawDotModeEx                            0x080012a3   Thumb Code   166  display.o(.text)
    DrawLineRow                              0x08001349   Thumb Code    46  display.o(.text)
    DrawLineCol                              0x08001377   Thumb Code    46  display.o(.text)
    LineToMode                               0x080013a5   Thumb Code   260  display.o(.text)
    LineTo                                   0x080014a9   Thumb Code   270  display.o(.text)
    DrawLine                                 0x080015b7   Thumb Code   238  display.o(.text)
    DrawFont                                 0x080016a5   Thumb Code    46  display.o(.text)
    DrawChineseFont                          0x080016d3   Thumb Code    74  display.o(.text)
    DrawFontL2R8x16                          0x0800171d   Thumb Code   218  display.o(.text)
    DrawFontL2R8x16Not                       0x080017f7   Thumb Code   226  display.o(.text)
    DrawFontL2R5x7                           0x080018d9   Thumb Code   270  display.o(.text)
    DrawFontT2B5x7                           0x080019e7   Thumb Code   292  display.o(.text)
    DrawFontB2T5x7                           0x08001b0b   Thumb Code   272  display.o(.text)
    GetAlphDigIndex                          0x08001c1b   Thumb Code    70  display.o(.text)
    DrawCoordinate                           0x08001c61   Thumb Code   730  display.o(.text)
    AdjustUIValue                            0x08001f3b   Thumb Code   546  display.o(.text)
    GetDispCurveValue                        0x0800215d   Thumb Code    50  display.o(.text)
    DrawCurve                                0x0800218f   Thumb Code   594  display.o(.text)
    DrawMenu                                 0x080023e1   Thumb Code  5912  display.o(.text)
    ClrDispBuf                               0x08003af9   Thumb Code    26  display.o(.text)
    SetDispBufEx                             0x08003b13   Thumb Code    24  display.o(.text)
    Display                                  0x08003b2b   Thumb Code   234  display.o(.text)
    ReadRTChargeDataTest                     0x08003c15   Thumb Code    60  display.o(.text)
    delayms                                  0x08003c6d   Thumb Code    56  lcd.o(.text)
    SdCmd                                    0x08003ca5   Thumb Code   456  lcd.o(.text)
    SdData                                   0x08003e6d   Thumb Code   460  lcd.o(.text)
    LcdIOInit                                0x08004039   Thumb Code    40  lcd.o(.text)
    LcdClr                                   0x08004061   Thumb Code   174  lcd.o(.text)
    LcdInit                                  0x0800410f   Thumb Code   176  lcd.o(.text)
    LcdSet                                   0x080041bf   Thumb Code   162  lcd.o(.text)
    LcdRefresh                               0x08004261   Thumb Code   306  lcd.o(.text)
    SPI_Dly                                  0x08004399   Thumb Code    22  spi.o(.text)
    SPI_Initial                              0x080043af   Thumb Code    74  spi.o(.text)
    SPI_Output                               0x080043f9   Thumb Code   128  spi.o(.text)
    Ctrl_IOInit                              0x08004481   Thumb Code   296  ctrl.o(.text)
    Ctrl_ADCInit                             0x080045a9   Thumb Code   102  ctrl.o(.text)
    Ctrl_PwmInit                             0x0800460f   Thumb Code   194  ctrl.o(.text)
    Ctrl_Init                                0x080046d1   Thumb Code    16  ctrl.o(.text)
    GetADCVal                                0x080046e1   Thumb Code    46  ctrl.o(.text)
    GetTempCelVal                            0x0800470f   Thumb Code    62  ctrl.o(.text)
    KeyScan                                  0x0800474d   Thumb Code    82  ctrl.o(.text)
    KeyFilt                                  0x0800479f   Thumb Code   274  ctrl.o(.text)
    KeyProc                                  0x080048b1   Thumb Code   650  ctrl.o(.text)
    GetInputState                            0x08004b3b   Thumb Code   558  ctrl.o(.text)
    Ctrl_ADC                                 0x08004d69   Thumb Code   272  ctrl.o(.text)
    TimerRun                                 0x08004e79   Thumb Code    22  ctrl.o(.text)
    ResetTimer                               0x08004e8f   Thumb Code    12  ctrl.o(.text)
    GetTimer                                 0x08004e9b   Thumb Code     6  ctrl.o(.text)
    GetUISet                                 0x08004ea1   Thumb Code    32  ctrl.o(.text)
    GetCSet                                  0x08004ec1   Thumb Code    18  ctrl.o(.text)
    PowerOnProc                              0x08004ed3   Thumb Code   836  ctrl.o(.text)
    PwmIOut                                  0x08005217   Thumb Code    14  ctrl.o(.text)
    PwmUOut                                  0x08005225   Thumb Code    14  ctrl.o(.text)
    LoadRefresh                              0x08005233   Thumb Code   614  ctrl.o(.text)
    LEDDisp                                  0x08005499   Thumb Code   506  ctrl.o(.text)
    Ctrl                                     0x08005693   Thumb Code  3654  ctrl.o(.text)
    mem_cpy                                  0x08006509   Thumb Code    26  db.o(.text)
    mem_set                                  0x08006523   Thumb Code    20  db.o(.text)
    GetChkSum                                0x08006537   Thumb Code    28  db.o(.text)
    GetUITFileName                           0x08006553   Thumb Code    96  db.o(.text)
    DBInit                                   0x080065b3   Thumb Code   884  db.o(.text)
    DBSaveUITemp                             0x08006927   Thumb Code   452  db.o(.text)
    DBLoadUI                                 0x08006aeb   Thumb Code   288  db.o(.text)
    DBReadUIFile                             0x08006c0b   Thumb Code   102  db.o(.text)
    DBGetUIFileSize                          0x08006c71   Thumb Code   132  db.o(.text)
    DBLoadUITemp                             0x08006cf5   Thumb Code   234  db.o(.text)
    DBGetCT                                  0x08006ddf   Thumb Code   354  db.o(.text)
    DBSaveUITSet                             0x08006f41   Thumb Code   150  db.o(.text)
    DBLoadUITSet                             0x08006fd7   Thumb Code   168  db.o(.text)
    DBSaveCfg                                0x0800707f   Thumb Code   230  db.o(.text)
    DBLoadCfg                                0x08007165   Thumb Code   116  db.o(.text)
    DBLoadCfgEx                              0x080071d9   Thumb Code   278  db.o(.text)
    DBCfgValidCheck                          0x080072ef   Thumb Code   162  db.o(.text)
    DBSaveCfgSet                             0x08007391   Thumb Code   130  db.o(.text)
    DBLoadCfgSet                             0x08007413   Thumb Code   122  db.o(.text)
    DBSaveCalibValue                         0x0800748d   Thumb Code   102  db.o(.text)
    DBLoadCalibValue                         0x080074f3   Thumb Code    48  db.o(.text)
    CommunicateWDG                           0x0800753d   Thumb Code    42  communication.o(.text)
    Communicate                              0x08007567   Thumb Code  1178  communication.o(.text)
    Reset_Handler                            0x08007a1d   Thumb Code     8  startup_stm32f10x_hd.o(.text)
    ADC3_IRQHandler                          0x08007a37   Thumb Code     0  startup_stm32f10x_hd.o(.text)
    CAN1_RX1_IRQHandler                      0x08007a37   Thumb Code     0  startup_stm32f10x_hd.o(.text)
    CAN1_SCE_IRQHandler                      0x08007a37   Thumb Code     0  startup_stm32f10x_hd.o(.text)
    DMA1_Channel1_IRQHandler                 0x08007a37   Thumb Code     0  startup_stm32f10x_hd.o(.text)
    DMA1_Channel2_IRQHandler                 0x08007a37   Thumb Code     0  startup_stm32f10x_hd.o(.text)
    DMA1_Channel3_IRQHandler                 0x08007a37   Thumb Code     0  startup_stm32f10x_hd.o(.text)
    DMA1_Channel4_IRQHandler                 0x08007a37   Thumb Code     0  startup_stm32f10x_hd.o(.text)
    DMA1_Channel5_IRQHandler                 0x08007a37   Thumb Code     0  startup_stm32f10x_hd.o(.text)
    DMA1_Channel6_IRQHandler                 0x08007a37   Thumb Code     0  startup_stm32f10x_hd.o(.text)
    DMA1_Channel7_IRQHandler                 0x08007a37   Thumb Code     0  startup_stm32f10x_hd.o(.text)
    DMA2_Channel1_IRQHandler                 0x08007a37   Thumb Code     0  startup_stm32f10x_hd.o(.text)
    DMA2_Channel2_IRQHandler                 0x08007a37   Thumb Code     0  startup_stm32f10x_hd.o(.text)
    DMA2_Channel3_IRQHandler                 0x08007a37   Thumb Code     0  startup_stm32f10x_hd.o(.text)
    EXTI0_IRQHandler                         0x08007a37   Thumb Code     0  startup_stm32f10x_hd.o(.text)
    EXTI15_10_IRQHandler                     0x08007a37   Thumb Code     0  startup_stm32f10x_hd.o(.text)
    EXTI1_IRQHandler                         0x08007a37   Thumb Code     0  startup_stm32f10x_hd.o(.text)
    EXTI2_IRQHandler                         0x08007a37   Thumb Code     0  startup_stm32f10x_hd.o(.text)
    EXTI3_IRQHandler                         0x08007a37   Thumb Code     0  startup_stm32f10x_hd.o(.text)
    EXTI4_IRQHandler                         0x08007a37   Thumb Code     0  startup_stm32f10x_hd.o(.text)
    EXTI9_5_IRQHandler                       0x08007a37   Thumb Code     0  startup_stm32f10x_hd.o(.text)
    FLASH_IRQHandler                         0x08007a37   Thumb Code     0  startup_stm32f10x_hd.o(.text)
    FSMC_IRQHandler                          0x08007a37   Thumb Code     0  startup_stm32f10x_hd.o(.text)
    I2C1_ER_IRQHandler                       0x08007a37   Thumb Code     0  startup_stm32f10x_hd.o(.text)
    I2C1_EV_IRQHandler                       0x08007a37   Thumb Code     0  startup_stm32f10x_hd.o(.text)
    I2C2_ER_IRQHandler                       0x08007a37   Thumb Code     0  startup_stm32f10x_hd.o(.text)
    I2C2_EV_IRQHandler                       0x08007a37   Thumb Code     0  startup_stm32f10x_hd.o(.text)
    PVD_IRQHandler                           0x08007a37   Thumb Code     0  startup_stm32f10x_hd.o(.text)
    RCC_IRQHandler                           0x08007a37   Thumb Code     0  startup_stm32f10x_hd.o(.text)
    RTCAlarm_IRQHandler                      0x08007a37   Thumb Code     0  startup_stm32f10x_hd.o(.text)
    SPI1_IRQHandler                          0x08007a37   Thumb Code     0  startup_stm32f10x_hd.o(.text)
    SPI2_IRQHandler                          0x08007a37   Thumb Code     0  startup_stm32f10x_hd.o(.text)
    SPI3_IRQHandler                          0x08007a37   Thumb Code     0  startup_stm32f10x_hd.o(.text)
    TAMPER_IRQHandler                        0x08007a37   Thumb Code     0  startup_stm32f10x_hd.o(.text)
    TIM1_BRK_IRQHandler                      0x08007a37   Thumb Code     0  startup_stm32f10x_hd.o(.text)
    TIM1_CC_IRQHandler                       0x08007a37   Thumb Code     0  startup_stm32f10x_hd.o(.text)
    TIM1_TRG_COM_IRQHandler                  0x08007a37   Thumb Code     0  startup_stm32f10x_hd.o(.text)
    TIM2_IRQHandler                          0x08007a37   Thumb Code     0  startup_stm32f10x_hd.o(.text)
    TIM3_IRQHandler                          0x08007a37   Thumb Code     0  startup_stm32f10x_hd.o(.text)
    TIM4_IRQHandler                          0x08007a37   Thumb Code     0  startup_stm32f10x_hd.o(.text)
    TIM5_IRQHandler                          0x08007a37   Thumb Code     0  startup_stm32f10x_hd.o(.text)
    TIM6_IRQHandler                          0x08007a37   Thumb Code     0  startup_stm32f10x_hd.o(.text)
    TIM7_IRQHandler                          0x08007a37   Thumb Code     0  startup_stm32f10x_hd.o(.text)
    TIM8_BRK_IRQHandler                      0x08007a37   Thumb Code     0  startup_stm32f10x_hd.o(.text)
    TIM8_CC_IRQHandler                       0x08007a37   Thumb Code     0  startup_stm32f10x_hd.o(.text)
    TIM8_TRG_COM_IRQHandler                  0x08007a37   Thumb Code     0  startup_stm32f10x_hd.o(.text)
    TIM8_UP_IRQHandler                       0x08007a37   Thumb Code     0  startup_stm32f10x_hd.o(.text)
    UART4_IRQHandler                         0x08007a37   Thumb Code     0  startup_stm32f10x_hd.o(.text)
    UART5_IRQHandler                         0x08007a37   Thumb Code     0  startup_stm32f10x_hd.o(.text)
    USART2_IRQHandler                        0x08007a37   Thumb Code     0  startup_stm32f10x_hd.o(.text)
    USART3_IRQHandler                        0x08007a37   Thumb Code     0  startup_stm32f10x_hd.o(.text)
    USB_HP_CAN1_TX_IRQHandler                0x08007a37   Thumb Code     0  startup_stm32f10x_hd.o(.text)
    WWDG_IRQHandler                          0x08007a37   Thumb Code     0  startup_stm32f10x_hd.o(.text)
    __user_initial_stackheap                 0x08007a39   Thumb Code     0  startup_stm32f10x_hd.o(.text)
    Standard_GetConfiguration                0x08007a5d   Thumb Code    34  usb_core.o(.text)
    Standard_SetConfiguration                0x08007a7f   Thumb Code    60  usb_core.o(.text)
    Standard_GetInterface                    0x08007abb   Thumb Code    34  usb_core.o(.text)
    Standard_SetInterface                    0x08007add   Thumb Code    96  usb_core.o(.text)
    Standard_GetStatus                       0x08007b3d   Thumb Code   238  usb_core.o(.text)
    Standard_ClearFeature                    0x08007c2b   Thumb Code   342  usb_core.o(.text)
    Standard_SetEndPointFeature              0x08007d81   Thumb Code   220  usb_core.o(.text)
    Standard_SetDeviceFeature                0x08007e5d   Thumb Code    30  usb_core.o(.text)
    Standard_GetDescriptorData               0x08007e7b   Thumb Code    32  usb_core.o(.text)
    Post0_Process                            0x080083af   Thumb Code    54  usb_core.o(.text)
    Setup0_Process                           0x080083e5   Thumb Code   170  usb_core.o(.text)
    SetDeviceAddress                         0x0800848f   Thumb Code    70  usb_core.o(.text)
    In0_Process                              0x080084d5   Thumb Code    98  usb_core.o(.text)
    Out0_Process                             0x08008537   Thumb Code    70  usb_core.o(.text)
    NOP_Process                              0x0800857d   Thumb Code     2  usb_core.o(.text)
    USB_Init                                 0x080085ad   Thumb Code    36  usb_init.o(.text)
    CTR_LP                                   0x080085e9   Thumb Code   616  usb_int.o(.text)
    CTR_HP                                   0x08008851   Thumb Code   178  usb_int.o(.text)
    UserToPMABufferCopy                      0x08008925   Thumb Code    52  usb_mem.o(.text)
    PMAToUserBufferCopy                      0x08008959   Thumb Code    34  usb_mem.o(.text)
    SetCNTR                                  0x08008981   Thumb Code     6  usb_regs.o(.text)
    GetCNTR                                  0x08008987   Thumb Code     8  usb_regs.o(.text)
    SetISTR                                  0x0800898f   Thumb Code     8  usb_regs.o(.text)
    GetISTR                                  0x08008997   Thumb Code    10  usb_regs.o(.text)
    GetFNR                                   0x080089a1   Thumb Code    10  usb_regs.o(.text)
    SetDADDR                                 0x080089ab   Thumb Code     8  usb_regs.o(.text)
    GetDADDR                                 0x080089b3   Thumb Code    10  usb_regs.o(.text)
    SetBTABLE                                0x080089bd   Thumb Code    14  usb_regs.o(.text)
    GetBTABLE                                0x080089cb   Thumb Code    10  usb_regs.o(.text)
    SetENDPOINT                              0x080089d5   Thumb Code    12  usb_regs.o(.text)
    GetENDPOINT                              0x080089e1   Thumb Code    16  usb_regs.o(.text)
    SetEPType                                0x080089f1   Thumb Code    32  usb_regs.o(.text)
    GetEPType                                0x08008a11   Thumb Code    18  usb_regs.o(.text)
    SetEPTxStatus                            0x08008a23   Thumb Code    60  usb_regs.o(.text)
    SetEPRxStatus                            0x08008a5f   Thumb Code    60  usb_regs.o(.text)
    SetDouBleBuffEPStall                     0x08008a9b   Thumb Code    54  usb_regs.o(.text)
    GetEPTxStatus                            0x08008ad1   Thumb Code    18  usb_regs.o(.text)
    GetEPRxStatus                            0x08008ae3   Thumb Code    18  usb_regs.o(.text)
    SetEPTxValid                             0x08008af5   Thumb Code    48  usb_regs.o(.text)
    SetEPRxValid                             0x08008b25   Thumb Code    48  usb_regs.o(.text)
    SetEP_KIND                               0x08008b55   Thumb Code    38  usb_regs.o(.text)
    ClearEP_KIND                             0x08008b7b   Thumb Code    34  usb_regs.o(.text)
    Clear_Status_Out                         0x08008b9d   Thumb Code    34  usb_regs.o(.text)
    Set_Status_Out                           0x08008bbf   Thumb Code    38  usb_regs.o(.text)
    SetEPDoubleBuff                          0x08008be5   Thumb Code    38  usb_regs.o(.text)
    ClearEPDoubleBuff                        0x08008c0b   Thumb Code    34  usb_regs.o(.text)
    GetTxStallStatus                         0x08008c2d   Thumb Code    28  usb_regs.o(.text)
    GetRxStallStatus                         0x08008c49   Thumb Code    30  usb_regs.o(.text)
    ClearEP_CTR_RX                           0x08008c67   Thumb Code    32  usb_regs.o(.text)
    ClearEP_CTR_TX                           0x08008c87   Thumb Code    28  usb_regs.o(.text)
    ToggleDTOG_RX                            0x08008ca3   Thumb Code    34  usb_regs.o(.text)
    ToggleDTOG_TX                            0x08008cc5   Thumb Code    34  usb_regs.o(.text)
    ClearDTOG_RX                             0x08008ce7   Thumb Code    48  usb_regs.o(.text)
    ClearDTOG_TX                             0x08008d17   Thumb Code    48  usb_regs.o(.text)
    SetEPAddress                             0x08008d47   Thumb Code    46  usb_regs.o(.text)
    GetEPAddress                             0x08008d75   Thumb Code    18  usb_regs.o(.text)
    SetEPTxAddr                              0x08008d87   Thumb Code    24  usb_regs.o(.text)
    SetEPRxAddr                              0x08008d9f   Thumb Code    26  usb_regs.o(.text)
    GetEPTxAddr                              0x08008db9   Thumb Code    22  usb_regs.o(.text)
    GetEPRxAddr                              0x08008dcf   Thumb Code    24  usb_regs.o(.text)
    SetEPTxCount                             0x08008de7   Thumb Code    20  usb_regs.o(.text)
    SetEPCountRxReg                          0x08008dfb   Thumb Code    48  usb_regs.o(.text)
    SetEPRxCount                             0x08008e2b   Thumb Code    68  usb_regs.o(.text)
    GetEPTxCount                             0x08008e6f   Thumb Code    26  usb_regs.o(.text)
    GetEPRxCount                             0x08008e89   Thumb Code    26  usb_regs.o(.text)
    SetEPDblBuffAddr                         0x08008ea3   Thumb Code    44  usb_regs.o(.text)
    SetEPDblBuf0Addr                         0x08008ecf   Thumb Code    24  usb_regs.o(.text)
    SetEPDblBuf1Addr                         0x08008ee7   Thumb Code    26  usb_regs.o(.text)
    GetEPDblBuf0Addr                         0x08008f01   Thumb Code    22  usb_regs.o(.text)
    GetEPDblBuf1Addr                         0x08008f17   Thumb Code    24  usb_regs.o(.text)
    SetEPDblBuffCount                        0x08008f2f   Thumb Code   186  usb_regs.o(.text)
    SetEPDblBuf0Count                        0x08008fe9   Thumb Code    96  usb_regs.o(.text)
    SetEPDblBuf1Count                        0x08009049   Thumb Code    96  usb_regs.o(.text)
    GetEPDblBuf0Count                        0x080090a9   Thumb Code    26  usb_regs.o(.text)
    GetEPDblBuf1Count                        0x080090c3   Thumb Code    26  usb_regs.o(.text)
    GetEPDblBufDir                           0x080090dd   Thumb Code    62  usb_regs.o(.text)
    FreeUserBuffer                           0x0800911b   Thumb Code    90  usb_regs.o(.text)
    ToWord                                   0x08009175   Thumb Code     8  usb_regs.o(.text)
    ByteSwap                                 0x0800917d   Thumb Code    12  usb_regs.o(.text)
    USB_SIL_Init                             0x08009189   Thumb Code    28  usb_sil.o(.text)
    USB_SIL_Write                            0x080091a5   Thumb Code    46  usb_sil.o(.text)
    USB_SIL_Read                             0x080091d3   Thumb Code    46  usb_sil.o(.text)
    NVIC_PriorityGroupConfig                 0x08009209   Thumb Code    10  misc.o(.text)
    NVIC_Init                                0x08009213   Thumb Code   100  misc.o(.text)
    NVIC_SetVectorTable                      0x08009277   Thumb Code    14  misc.o(.text)
    NVIC_SystemLPConfig                      0x08009285   Thumb Code    34  misc.o(.text)
    SysTick_CLKSourceConfig                  0x080092a7   Thumb Code    40  misc.o(.text)
    ADC_DeInit                               0x080092e5   Thumb Code    78  stm32f10x_adc.o(.text)
    ADC_Init                                 0x08009333   Thumb Code    70  stm32f10x_adc.o(.text)
    ADC_StructInit                           0x08009379   Thumb Code    18  stm32f10x_adc.o(.text)
    ADC_Cmd                                  0x0800938b   Thumb Code    22  stm32f10x_adc.o(.text)
    ADC_DMACmd                               0x080093a1   Thumb Code    22  stm32f10x_adc.o(.text)
    ADC_ITConfig                             0x080093b7   Thumb Code    24  stm32f10x_adc.o(.text)
    ADC_ResetCalibration                     0x080093cf   Thumb Code    10  stm32f10x_adc.o(.text)
    ADC_GetResetCalibrationStatus            0x080093d9   Thumb Code    20  stm32f10x_adc.o(.text)
    ADC_StartCalibration                     0x080093ed   Thumb Code    10  stm32f10x_adc.o(.text)
    ADC_GetCalibrationStatus                 0x080093f7   Thumb Code    20  stm32f10x_adc.o(.text)
    ADC_SoftwareStartConvCmd                 0x0800940b   Thumb Code    22  stm32f10x_adc.o(.text)
    ADC_GetSoftwareStartConvStatus           0x08009421   Thumb Code    20  stm32f10x_adc.o(.text)
    ADC_DiscModeChannelCountConfig           0x08009435   Thumb Code    24  stm32f10x_adc.o(.text)
    ADC_DiscModeCmd                          0x0800944d   Thumb Code    22  stm32f10x_adc.o(.text)
    ADC_RegularChannelConfig                 0x08009463   Thumb Code   184  stm32f10x_adc.o(.text)
    ADC_ExternalTrigConvCmd                  0x0800951b   Thumb Code    22  stm32f10x_adc.o(.text)
    ADC_GetConversionValue                   0x08009531   Thumb Code     8  stm32f10x_adc.o(.text)
    ADC_GetDualModeConversionValue           0x08009539   Thumb Code     8  stm32f10x_adc.o(.text)
    ADC_AutoInjectedConvCmd                  0x08009541   Thumb Code    22  stm32f10x_adc.o(.text)
    ADC_InjectedDiscModeCmd                  0x08009557   Thumb Code    22  stm32f10x_adc.o(.text)
    ADC_ExternalTrigInjectedConvConfig       0x0800956d   Thumb Code    16  stm32f10x_adc.o(.text)
    ADC_ExternalTrigInjectedConvCmd          0x0800957d   Thumb Code    22  stm32f10x_adc.o(.text)
    ADC_SoftwareStartInjectedConvCmd         0x08009593   Thumb Code    22  stm32f10x_adc.o(.text)
    ADC_GetSoftwareStartInjectedConvCmdStatus 0x080095a9   Thumb Code    20  stm32f10x_adc.o(.text)
    ADC_InjectedChannelConfig                0x080095bd   Thumb Code   130  stm32f10x_adc.o(.text)
    ADC_InjectedSequencerLengthConfig        0x0800963f   Thumb Code    24  stm32f10x_adc.o(.text)
    ADC_SetInjectedOffset                    0x08009657   Thumb Code    20  stm32f10x_adc.o(.text)
    ADC_GetInjectedConversionValue           0x0800966b   Thumb Code    28  stm32f10x_adc.o(.text)
    ADC_AnalogWatchdogCmd                    0x08009687   Thumb Code    16  stm32f10x_adc.o(.text)
    ADC_AnalogWatchdogThresholdsConfig       0x08009697   Thumb Code     6  stm32f10x_adc.o(.text)
    ADC_AnalogWatchdogSingleChannelConfig    0x0800969d   Thumb Code    16  stm32f10x_adc.o(.text)
    ADC_TempSensorVrefintCmd                 0x080096ad   Thumb Code    64  stm32f10x_adc.o(.text)
    ADC_GetFlagStatus                        0x080096ed   Thumb Code    18  stm32f10x_adc.o(.text)
    ADC_ClearFlag                            0x080096ff   Thumb Code     6  stm32f10x_adc.o(.text)
    ADC_GetITStatus                          0x08009705   Thumb Code    36  stm32f10x_adc.o(.text)
    ADC_ClearITPendingBit                    0x08009729   Thumb Code    10  stm32f10x_adc.o(.text)
    BKP_DeInit                               0x08009735   Thumb Code    16  stm32f10x_bkp.o(.text)
    BKP_TamperPinLevelConfig                 0x08009745   Thumb Code     6  stm32f10x_bkp.o(.text)
    BKP_TamperPinCmd                         0x0800974b   Thumb Code     8  stm32f10x_bkp.o(.text)
    BKP_ITConfig                             0x08009753   Thumb Code     8  stm32f10x_bkp.o(.text)
    BKP_RTCOutputConfig                      0x0800975b   Thumb Code    22  stm32f10x_bkp.o(.text)
    BKP_SetRTCCalibrationValue               0x08009771   Thumb Code    22  stm32f10x_bkp.o(.text)
    BKP_WriteBackupRegister                  0x08009787   Thumb Code    24  stm32f10x_bkp.o(.text)
    BKP_ReadBackupRegister                   0x0800979f   Thumb Code    26  stm32f10x_bkp.o(.text)
    BKP_GetFlagStatus                        0x080097b9   Thumb Code    10  stm32f10x_bkp.o(.text)
    BKP_ClearFlag                            0x080097c3   Thumb Code    18  stm32f10x_bkp.o(.text)
    BKP_GetITStatus                          0x080097d5   Thumb Code    10  stm32f10x_bkp.o(.text)
    BKP_ClearITPendingBit                    0x080097df   Thumb Code    18  stm32f10x_bkp.o(.text)
    DMA_DeInit                               0x080097f9   Thumb Code   324  stm32f10x_dma.o(.text)
    DMA_Init                                 0x0800993d   Thumb Code    60  stm32f10x_dma.o(.text)
    DMA_StructInit                           0x08009979   Thumb Code    26  stm32f10x_dma.o(.text)
    DMA_Cmd                                  0x08009993   Thumb Code    24  stm32f10x_dma.o(.text)
    DMA_ITConfig                             0x080099ab   Thumb Code    18  stm32f10x_dma.o(.text)
    DMA_SetCurrDataCounter                   0x080099bd   Thumb Code     4  stm32f10x_dma.o(.text)
    DMA_GetCurrDataCounter                   0x080099c1   Thumb Code     8  stm32f10x_dma.o(.text)
    DMA_GetFlagStatus                        0x080099c9   Thumb Code    40  stm32f10x_dma.o(.text)
    DMA_ClearFlag                            0x080099f1   Thumb Code    22  stm32f10x_dma.o(.text)
    DMA_GetITStatus                          0x08009a07   Thumb Code    40  stm32f10x_dma.o(.text)
    DMA_ClearITPendingBit                    0x08009a2f   Thumb Code    22  stm32f10x_dma.o(.text)
    EXTI_DeInit                              0x08009a4d   Thumb Code    28  stm32f10x_exti.o(.text)
    EXTI_Init                                0x08009a69   Thumb Code   142  stm32f10x_exti.o(.text)
    EXTI_StructInit                          0x08009af7   Thumb Code    16  stm32f10x_exti.o(.text)
    EXTI_GenerateSWInterrupt                 0x08009b07   Thumb Code    16  stm32f10x_exti.o(.text)
    EXTI_GetFlagStatus                       0x08009b17   Thumb Code    22  stm32f10x_exti.o(.text)
    EXTI_ClearFlag                           0x08009b2d   Thumb Code     8  stm32f10x_exti.o(.text)
    EXTI_GetITStatus                         0x08009b35   Thumb Code    34  stm32f10x_exti.o(.text)
    EXTI_ClearITPendingBit                   0x08009b57   Thumb Code     8  stm32f10x_exti.o(.text)
    FLASH_SetLatency                         0x08009b69   Thumb Code    18  stm32f10x_flash.o(.text)
    FLASH_HalfCycleAccessCmd                 0x08009b7b   Thumb Code    22  stm32f10x_flash.o(.text)
    FLASH_PrefetchBufferCmd                  0x08009b91   Thumb Code    22  stm32f10x_flash.o(.text)
    FLASH_Unlock                             0x08009ba7   Thumb Code    12  stm32f10x_flash.o(.text)
    FLASH_UnlockBank1                        0x08009bb3   Thumb Code    12  stm32f10x_flash.o(.text)
    FLASH_Lock                               0x08009bbf   Thumb Code    14  stm32f10x_flash.o(.text)
    FLASH_LockBank1                          0x08009bcd   Thumb Code    14  stm32f10x_flash.o(.text)
    FLASH_GetBank1Status                     0x08009bdb   Thumb Code    48  stm32f10x_flash.o(.text)
    FLASH_WaitForLastOperation               0x08009c0b   Thumb Code    38  stm32f10x_flash.o(.text)
    FLASH_ErasePage                          0x08009c31   Thumb Code    72  stm32f10x_flash.o(.text)
    FLASH_EraseAllPages                      0x08009c79   Thumb Code    68  stm32f10x_flash.o(.text)
    FLASH_WaitForLastBank1Operation          0x08009cbd   Thumb Code    38  stm32f10x_flash.o(.text)
    FLASH_EraseAllBank1Pages                 0x08009ce3   Thumb Code    68  stm32f10x_flash.o(.text)
    FLASH_GetReadOutProtectionStatus         0x08009d27   Thumb Code    20  stm32f10x_flash.o(.text)
    FLASH_EraseOptionBytes                   0x08009d3b   Thumb Code   150  stm32f10x_flash.o(.text)
    FLASH_ProgramWord                        0x08009dd1   Thumb Code   102  stm32f10x_flash.o(.text)
    FLASH_ProgramHalfWord                    0x08009e37   Thumb Code    60  stm32f10x_flash.o(.text)
    FLASH_ProgramOptionByteData              0x08009e73   Thumb Code    72  stm32f10x_flash.o(.text)
    FLASH_EnableWriteProtection              0x08009ebb   Thumb Code   200  stm32f10x_flash.o(.text)
    FLASH_ReadOutProtection                  0x08009f83   Thumb Code   156  stm32f10x_flash.o(.text)
    FLASH_UserOptionByteConfig               0x0800a01f   Thumb Code    88  stm32f10x_flash.o(.text)
    FLASH_GetUserOptionByte                  0x0800a077   Thumb Code     8  stm32f10x_flash.o(.text)
    FLASH_GetWriteProtectionOptionByte       0x0800a07f   Thumb Code     6  stm32f10x_flash.o(.text)
    FLASH_GetPrefetchBufferStatus            0x0800a085   Thumb Code    20  stm32f10x_flash.o(.text)
    FLASH_ITConfig                           0x0800a099   Thumb Code    26  stm32f10x_flash.o(.text)
    FLASH_GetFlagStatus                      0x0800a0b3   Thumb Code    42  stm32f10x_flash.o(.text)
    FLASH_ClearFlag                          0x0800a0dd   Thumb Code     6  stm32f10x_flash.o(.text)
    FLASH_GetStatus                          0x0800a0e3   Thumb Code    48  stm32f10x_flash.o(.text)
    GPIO_DeInit                              0x0800a125   Thumb Code   172  stm32f10x_gpio.o(.text)
    GPIO_AFIODeInit                          0x0800a1d1   Thumb Code    20  stm32f10x_gpio.o(.text)
    GPIO_Init                                0x0800a1e5   Thumb Code   278  stm32f10x_gpio.o(.text)
    GPIO_StructInit                          0x0800a2fb   Thumb Code    16  stm32f10x_gpio.o(.text)
    GPIO_ReadInputDataBit                    0x0800a30b   Thumb Code    18  stm32f10x_gpio.o(.text)
    GPIO_ReadInputData                       0x0800a31d   Thumb Code     8  stm32f10x_gpio.o(.text)
    GPIO_ReadOutputDataBit                   0x0800a325   Thumb Code    18  stm32f10x_gpio.o(.text)
    GPIO_ReadOutputData                      0x0800a337   Thumb Code     8  stm32f10x_gpio.o(.text)
    GPIO_SetBits                             0x0800a33f   Thumb Code     4  stm32f10x_gpio.o(.text)
    GPIO_ResetBits                           0x0800a343   Thumb Code     4  stm32f10x_gpio.o(.text)
    GPIO_WriteBit                            0x0800a347   Thumb Code    10  stm32f10x_gpio.o(.text)
    GPIO_Write                               0x0800a351   Thumb Code     4  stm32f10x_gpio.o(.text)
    GPIO_PinLockConfig                       0x0800a355   Thumb Code    18  stm32f10x_gpio.o(.text)
    GPIO_EventOutputConfig                   0x0800a367   Thumb Code    26  stm32f10x_gpio.o(.text)
    GPIO_EventOutputCmd                      0x0800a381   Thumb Code     6  stm32f10x_gpio.o(.text)
    GPIO_PinRemapConfig                      0x0800a387   Thumb Code   138  stm32f10x_gpio.o(.text)
    GPIO_EXTILineConfig                      0x0800a411   Thumb Code    66  stm32f10x_gpio.o(.text)
    GPIO_ETH_MediaInterfaceConfig            0x0800a453   Thumb Code     8  stm32f10x_gpio.o(.text)
    IWDG_WriteAccessCmd                      0x0800a481   Thumb Code     6  stm32f10x_iwdg.o(.text)
    IWDG_SetPrescaler                        0x0800a487   Thumb Code     6  stm32f10x_iwdg.o(.text)
    IWDG_SetReload                           0x0800a48d   Thumb Code     6  stm32f10x_iwdg.o(.text)
    IWDG_ReloadCounter                       0x0800a493   Thumb Code    10  stm32f10x_iwdg.o(.text)
    IWDG_Enable                              0x0800a49d   Thumb Code    10  stm32f10x_iwdg.o(.text)
    IWDG_GetFlagStatus                       0x0800a4a7   Thumb Code    20  stm32f10x_iwdg.o(.text)
    PWR_DeInit                               0x0800a4c1   Thumb Code    22  stm32f10x_pwr.o(.text)
    PWR_BackupAccessCmd                      0x0800a4d7   Thumb Code     6  stm32f10x_pwr.o(.text)
    PWR_PVDCmd                               0x0800a4dd   Thumb Code     6  stm32f10x_pwr.o(.text)
    PWR_PVDLevelConfig                       0x0800a4e3   Thumb Code    18  stm32f10x_pwr.o(.text)
    PWR_WakeUpPinCmd                         0x0800a4f5   Thumb Code     8  stm32f10x_pwr.o(.text)
    PWR_EnterSTOPMode                        0x0800a4fd   Thumb Code    54  stm32f10x_pwr.o(.text)
    PWR_EnterSTANDBYMode                     0x0800a533   Thumb Code    42  stm32f10x_pwr.o(.text)
    PWR_GetFlagStatus                        0x0800a55d   Thumb Code    20  stm32f10x_pwr.o(.text)
    PWR_ClearFlag                            0x0800a571   Thumb Code    14  stm32f10x_pwr.o(.text)
    RCC_DeInit                               0x0800a58d   Thumb Code    64  stm32f10x_rcc.o(.text)
    RCC_HSEConfig                            0x0800a5cd   Thumb Code    70  stm32f10x_rcc.o(.text)
    RCC_GetFlagStatus                        0x0800a613   Thumb Code    56  stm32f10x_rcc.o(.text)
    RCC_WaitForHSEStartUp                    0x0800a64b   Thumb Code    56  stm32f10x_rcc.o(.text)
    RCC_AdjustHSICalibrationValue            0x0800a683   Thumb Code    20  stm32f10x_rcc.o(.text)
    RCC_HSICmd                               0x0800a697   Thumb Code     6  stm32f10x_rcc.o(.text)
    RCC_PLLConfig                            0x0800a69d   Thumb Code    24  stm32f10x_rcc.o(.text)
    RCC_PLLCmd                               0x0800a6b5   Thumb Code     6  stm32f10x_rcc.o(.text)
    RCC_SYSCLKConfig                         0x0800a6bb   Thumb Code    18  stm32f10x_rcc.o(.text)
    RCC_GetSYSCLKSource                      0x0800a6cd   Thumb Code    10  stm32f10x_rcc.o(.text)
    RCC_HCLKConfig                           0x0800a6d7   Thumb Code    18  stm32f10x_rcc.o(.text)
    RCC_PCLK1Config                          0x0800a6e9   Thumb Code    18  stm32f10x_rcc.o(.text)
    RCC_PCLK2Config                          0x0800a6fb   Thumb Code    20  stm32f10x_rcc.o(.text)
    RCC_ITConfig                             0x0800a70f   Thumb Code    26  stm32f10x_rcc.o(.text)
    RCC_USBCLKConfig                         0x0800a729   Thumb Code     8  stm32f10x_rcc.o(.text)
    RCC_ADCCLKConfig                         0x0800a731   Thumb Code    18  stm32f10x_rcc.o(.text)
    RCC_LSEConfig                            0x0800a743   Thumb Code    50  stm32f10x_rcc.o(.text)
    RCC_LSICmd                               0x0800a775   Thumb Code     6  stm32f10x_rcc.o(.text)
    RCC_RTCCLKConfig                         0x0800a77b   Thumb Code    12  stm32f10x_rcc.o(.text)
    RCC_RTCCLKCmd                            0x0800a787   Thumb Code     8  stm32f10x_rcc.o(.text)
    RCC_GetClocksFreq                        0x0800a78f   Thumb Code   192  stm32f10x_rcc.o(.text)
    RCC_AHBPeriphClockCmd                    0x0800a84f   Thumb Code    26  stm32f10x_rcc.o(.text)
    RCC_APB2PeriphClockCmd                   0x0800a869   Thumb Code    26  stm32f10x_rcc.o(.text)
    RCC_APB1PeriphClockCmd                   0x0800a883   Thumb Code    26  stm32f10x_rcc.o(.text)
    RCC_APB2PeriphResetCmd                   0x0800a89d   Thumb Code    26  stm32f10x_rcc.o(.text)
    RCC_APB1PeriphResetCmd                   0x0800a8b7   Thumb Code    26  stm32f10x_rcc.o(.text)
    RCC_BackupResetCmd                       0x0800a8d1   Thumb Code     8  stm32f10x_rcc.o(.text)
    RCC_ClockSecuritySystemCmd               0x0800a8d9   Thumb Code     6  stm32f10x_rcc.o(.text)
    RCC_MCOConfig                            0x0800a8df   Thumb Code     6  stm32f10x_rcc.o(.text)
    RCC_ClearFlag                            0x0800a8e5   Thumb Code    14  stm32f10x_rcc.o(.text)
    RCC_GetITStatus                          0x0800a8f3   Thumb Code    20  stm32f10x_rcc.o(.text)
    RCC_ClearITPendingBit                    0x0800a907   Thumb Code     6  stm32f10x_rcc.o(.text)
    RTC_ITConfig                             0x0800a931   Thumb Code    26  stm32f10x_rtc.o(.text)
    RTC_EnterConfigMode                      0x0800a94b   Thumb Code    18  stm32f10x_rtc.o(.text)
    RTC_ExitConfigMode                       0x0800a95d   Thumb Code    20  stm32f10x_rtc.o(.text)
    RTC_GetCounter                           0x0800a971   Thumb Code    40  stm32f10x_rtc.o(.text)
    RTC_SetCounter                           0x0800a999   Thumb Code    26  stm32f10x_rtc.o(.text)
    RTC_SetPrescaler                         0x0800a9b3   Thumb Code    28  stm32f10x_rtc.o(.text)
    RTC_SetAlarm                             0x0800a9cf   Thumb Code    26  stm32f10x_rtc.o(.text)
    RTC_GetDivider                           0x0800a9e9   Thumb Code    22  stm32f10x_rtc.o(.text)
    RTC_WaitForLastTask                      0x0800a9ff   Thumb Code    18  stm32f10x_rtc.o(.text)
    RTC_WaitForSynchro                       0x0800aa11   Thumb Code    36  stm32f10x_rtc.o(.text)
    RTC_GetFlagStatus                        0x0800aa35   Thumb Code    22  stm32f10x_rtc.o(.text)
    RTC_ClearFlag                            0x0800aa4b   Thumb Code    16  stm32f10x_rtc.o(.text)
    RTC_GetITStatus                          0x0800aa5b   Thumb Code    32  stm32f10x_rtc.o(.text)
    RTC_ClearITPendingBit                    0x0800aa7b   Thumb Code    16  stm32f10x_rtc.o(.text)
    SDIO_DeInit                              0x0800aa91   Thumb Code    28  stm32f10x_sdio.o(.text)
    SDIO_Init                                0x0800aaad   Thumb Code    42  stm32f10x_sdio.o(.text)
    SDIO_StructInit                          0x0800aad7   Thumb Code    16  stm32f10x_sdio.o(.text)
    SDIO_ClockCmd                            0x0800aae7   Thumb Code     6  stm32f10x_sdio.o(.text)
    SDIO_SetPowerState                       0x0800aaed   Thumb Code     6  stm32f10x_sdio.o(.text)
    SDIO_GetPowerState                       0x0800aaf3   Thumb Code    10  stm32f10x_sdio.o(.text)
    SDIO_ITConfig                            0x0800aafd   Thumb Code    26  stm32f10x_sdio.o(.text)
    SDIO_DMACmd                              0x0800ab17   Thumb Code     6  stm32f10x_sdio.o(.text)
    SDIO_SendCommand                         0x0800ab1d   Thumb Code    38  stm32f10x_sdio.o(.text)
    SDIO_CmdStructInit                       0x0800ab43   Thumb Code    14  stm32f10x_sdio.o(.text)
    SDIO_GetCommandResponse                  0x0800ab51   Thumb Code     8  stm32f10x_sdio.o(.text)
    SDIO_GetResponse                         0x0800ab59   Thumb Code    22  stm32f10x_sdio.o(.text)
    SDIO_DataConfig                          0x0800ab6f   Thumb Code    42  stm32f10x_sdio.o(.text)
    SDIO_DataStructInit                      0x0800ab99   Thumb Code    20  stm32f10x_sdio.o(.text)
    SDIO_GetDataCounter                      0x0800abad   Thumb Code     6  stm32f10x_sdio.o(.text)
    SDIO_ReadData                            0x0800abb3   Thumb Code     8  stm32f10x_sdio.o(.text)
    SDIO_WriteData                           0x0800abbb   Thumb Code     8  stm32f10x_sdio.o(.text)
    SDIO_GetFIFOCount                        0x0800abc3   Thumb Code     6  stm32f10x_sdio.o(.text)
    SDIO_StartSDIOReadWait                   0x0800abc9   Thumb Code     8  stm32f10x_sdio.o(.text)
    SDIO_StopSDIOReadWait                    0x0800abd1   Thumb Code     8  stm32f10x_sdio.o(.text)
    SDIO_SetSDIOReadWaitMode                 0x0800abd9   Thumb Code     8  stm32f10x_sdio.o(.text)
    SDIO_SetSDIOOperation                    0x0800abe1   Thumb Code     8  stm32f10x_sdio.o(.text)
    SDIO_SendSDIOSuspendCmd                  0x0800abe9   Thumb Code     6  stm32f10x_sdio.o(.text)
    SDIO_CommandCompletionCmd                0x0800abef   Thumb Code     8  stm32f10x_sdio.o(.text)
    SDIO_CEATAITCmd                          0x0800abf7   Thumb Code    12  stm32f10x_sdio.o(.text)
    SDIO_SendCEATACmd                        0x0800ac03   Thumb Code     8  stm32f10x_sdio.o(.text)
    SDIO_GetFlagStatus                       0x0800ac0b   Thumb Code    20  stm32f10x_sdio.o(.text)
    SDIO_ClearFlag                           0x0800ac1f   Thumb Code     6  stm32f10x_sdio.o(.text)
    SDIO_GetITStatus                         0x0800ac25   Thumb Code    20  stm32f10x_sdio.o(.text)
    SDIO_ClearITPendingBit                   0x0800ac39   Thumb Code     6  stm32f10x_sdio.o(.text)
    TIM_DeInit                               0x0800ac55   Thumb Code   424  stm32f10x_tim.o(.text)
    TIM_TimeBaseInit                         0x0800adfd   Thumb Code   122  stm32f10x_tim.o(.text)
    TIM_OC1Init                              0x0800ae77   Thumb Code   132  stm32f10x_tim.o(.text)
    TIM_OC2Init                              0x0800aefb   Thumb Code   154  stm32f10x_tim.o(.text)
    TIM_OC3Init                              0x0800af95   Thumb Code   150  stm32f10x_tim.o(.text)
    TIM_OC4Init                              0x0800b02b   Thumb Code   182  stm32f10x_tim.o(.text)
    TIM_SetIC4Prescaler                      0x0800b0e1   Thumb Code    26  stm32f10x_tim.o(.text)
    TIM_SetIC3Prescaler                      0x0800b17d   Thumb Code    18  stm32f10x_tim.o(.text)
    TIM_SetIC2Prescaler                      0x0800b209   Thumb Code    26  stm32f10x_tim.o(.text)
    TIM_SetIC1Prescaler                      0x0800b2a5   Thumb Code    18  stm32f10x_tim.o(.text)
    TIM_ICInit                               0x0800b323   Thumb Code   150  stm32f10x_tim.o(.text)
    TIM_PWMIConfig                           0x0800b3b9   Thumb Code   124  stm32f10x_tim.o(.text)
    TIM_BDTRConfig                           0x0800b435   Thumb Code    32  stm32f10x_tim.o(.text)
    TIM_TimeBaseStructInit                   0x0800b455   Thumb Code    18  stm32f10x_tim.o(.text)
    TIM_OCStructInit                         0x0800b467   Thumb Code    20  stm32f10x_tim.o(.text)
    TIM_ICStructInit                         0x0800b47b   Thumb Code    18  stm32f10x_tim.o(.text)
    TIM_BDTRStructInit                       0x0800b48d   Thumb Code    40  stm32f10x_tim.o(.text)
    TIM_Cmd                                  0x0800b4b5   Thumb Code    24  stm32f10x_tim.o(.text)
    TIM_CtrlPWMOutputs                       0x0800b4cd   Thumb Code    30  stm32f10x_tim.o(.text)
    TIM_ITConfig                             0x0800b4eb   Thumb Code    18  stm32f10x_tim.o(.text)
    TIM_GenerateEvent                        0x0800b4fd   Thumb Code     4  stm32f10x_tim.o(.text)
    TIM_DMAConfig                            0x0800b501   Thumb Code    10  stm32f10x_tim.o(.text)
    TIM_DMACmd                               0x0800b50b   Thumb Code    18  stm32f10x_tim.o(.text)
    TIM_InternalClockConfig                  0x0800b51d   Thumb Code    12  stm32f10x_tim.o(.text)
    TIM_SelectInputTrigger                   0x0800b529   Thumb Code    18  stm32f10x_tim.o(.text)
    TIM_ITRxExternalClockConfig              0x0800b53b   Thumb Code    24  stm32f10x_tim.o(.text)
    TIM_TIxExternalClockConfig               0x0800b553   Thumb Code    62  stm32f10x_tim.o(.text)
    TIM_ETRConfig                            0x0800b591   Thumb Code    28  stm32f10x_tim.o(.text)
    TIM_ETRClockMode1Config                  0x0800b5ad   Thumb Code    54  stm32f10x_tim.o(.text)
    TIM_ETRClockMode2Config                  0x0800b5e3   Thumb Code    32  stm32f10x_tim.o(.text)
    TIM_PrescalerConfig                      0x0800b603   Thumb Code     6  stm32f10x_tim.o(.text)
    TIM_CounterModeConfig                    0x0800b609   Thumb Code    18  stm32f10x_tim.o(.text)
    TIM_EncoderInterfaceConfig               0x0800b61b   Thumb Code    66  stm32f10x_tim.o(.text)
    TIM_ForcedOC1Config                      0x0800b65d   Thumb Code    18  stm32f10x_tim.o(.text)
    TIM_ForcedOC2Config                      0x0800b66f   Thumb Code    26  stm32f10x_tim.o(.text)
    TIM_ForcedOC3Config                      0x0800b689   Thumb Code    18  stm32f10x_tim.o(.text)
    TIM_ForcedOC4Config                      0x0800b69b   Thumb Code    26  stm32f10x_tim.o(.text)
    TIM_ARRPreloadConfig                     0x0800b6b5   Thumb Code    24  stm32f10x_tim.o(.text)
    TIM_SelectCOM                            0x0800b6cd   Thumb Code    24  stm32f10x_tim.o(.text)
    TIM_SelectCCDMA                          0x0800b6e5   Thumb Code    24  stm32f10x_tim.o(.text)
    TIM_CCPreloadControl                     0x0800b6fd   Thumb Code    24  stm32f10x_tim.o(.text)
    TIM_OC1PreloadConfig                     0x0800b715   Thumb Code    18  stm32f10x_tim.o(.text)
    TIM_OC2PreloadConfig                     0x0800b727   Thumb Code    26  stm32f10x_tim.o(.text)
    TIM_OC3PreloadConfig                     0x0800b741   Thumb Code    18  stm32f10x_tim.o(.text)
    TIM_OC4PreloadConfig                     0x0800b753   Thumb Code    26  stm32f10x_tim.o(.text)
    TIM_OC1FastConfig                        0x0800b76d   Thumb Code    18  stm32f10x_tim.o(.text)
    TIM_OC2FastConfig                        0x0800b77f   Thumb Code    26  stm32f10x_tim.o(.text)
    TIM_OC3FastConfig                        0x0800b799   Thumb Code    18  stm32f10x_tim.o(.text)
    TIM_OC4FastConfig                        0x0800b7ab   Thumb Code    26  stm32f10x_tim.o(.text)
    TIM_ClearOC1Ref                          0x0800b7c5   Thumb Code    18  stm32f10x_tim.o(.text)
    TIM_ClearOC2Ref                          0x0800b7d7   Thumb Code    24  stm32f10x_tim.o(.text)
    TIM_ClearOC3Ref                          0x0800b7ef   Thumb Code    18  stm32f10x_tim.o(.text)
    TIM_ClearOC4Ref                          0x0800b801   Thumb Code    24  stm32f10x_tim.o(.text)
    TIM_OC1PolarityConfig                    0x0800b819   Thumb Code    18  stm32f10x_tim.o(.text)
    TIM_OC1NPolarityConfig                   0x0800b82b   Thumb Code    18  stm32f10x_tim.o(.text)
    TIM_OC2PolarityConfig                    0x0800b83d   Thumb Code    26  stm32f10x_tim.o(.text)
    TIM_OC2NPolarityConfig                   0x0800b857   Thumb Code    26  stm32f10x_tim.o(.text)
    TIM_OC3PolarityConfig                    0x0800b871   Thumb Code    26  stm32f10x_tim.o(.text)
    TIM_OC3NPolarityConfig                   0x0800b88b   Thumb Code    26  stm32f10x_tim.o(.text)
    TIM_OC4PolarityConfig                    0x0800b8a5   Thumb Code    26  stm32f10x_tim.o(.text)
    TIM_CCxCmd                               0x0800b8bf   Thumb Code    30  stm32f10x_tim.o(.text)
    TIM_CCxNCmd                              0x0800b8dd   Thumb Code    30  stm32f10x_tim.o(.text)
    TIM_SelectOCxM                           0x0800b8fb   Thumb Code    82  stm32f10x_tim.o(.text)
    TIM_UpdateDisableConfig                  0x0800b94d   Thumb Code    24  stm32f10x_tim.o(.text)
    TIM_UpdateRequestConfig                  0x0800b965   Thumb Code    24  stm32f10x_tim.o(.text)
    TIM_SelectHallSensor                     0x0800b97d   Thumb Code    24  stm32f10x_tim.o(.text)
    TIM_SelectOnePulseMode                   0x0800b995   Thumb Code    18  stm32f10x_tim.o(.text)
    TIM_SelectOutputTrigger                  0x0800b9a7   Thumb Code    18  stm32f10x_tim.o(.text)
    TIM_SelectSlaveMode                      0x0800b9b9   Thumb Code    18  stm32f10x_tim.o(.text)
    TIM_SelectMasterSlaveMode                0x0800b9cb   Thumb Code    18  stm32f10x_tim.o(.text)
    TIM_SetCounter                           0x0800b9dd   Thumb Code     4  stm32f10x_tim.o(.text)
    TIM_SetAutoreload                        0x0800b9e1   Thumb Code     4  stm32f10x_tim.o(.text)
    TIM_SetCompare1                          0x0800b9e5   Thumb Code     4  stm32f10x_tim.o(.text)
    TIM_SetCompare2                          0x0800b9e9   Thumb Code     4  stm32f10x_tim.o(.text)
    TIM_SetCompare3                          0x0800b9ed   Thumb Code     4  stm32f10x_tim.o(.text)
    TIM_SetCompare4                          0x0800b9f1   Thumb Code     6  stm32f10x_tim.o(.text)
    TIM_SetClockDivision                     0x0800b9f7   Thumb Code    18  stm32f10x_tim.o(.text)
    TIM_GetCapture1                          0x0800ba09   Thumb Code     6  stm32f10x_tim.o(.text)
    TIM_GetCapture2                          0x0800ba0f   Thumb Code     6  stm32f10x_tim.o(.text)
    TIM_GetCapture3                          0x0800ba15   Thumb Code     6  stm32f10x_tim.o(.text)
    TIM_GetCapture4                          0x0800ba1b   Thumb Code     8  stm32f10x_tim.o(.text)
    TIM_GetCounter                           0x0800ba23   Thumb Code     6  stm32f10x_tim.o(.text)
    TIM_GetPrescaler                         0x0800ba29   Thumb Code     6  stm32f10x_tim.o(.text)
    TIM_GetFlagStatus                        0x0800ba2f   Thumb Code    18  stm32f10x_tim.o(.text)
    TIM_ClearFlag                            0x0800ba41   Thumb Code     6  stm32f10x_tim.o(.text)
    TIM_GetITStatus                          0x0800ba47   Thumb Code    34  stm32f10x_tim.o(.text)
    TIM_ClearITPendingBit                    0x0800ba69   Thumb Code     6  stm32f10x_tim.o(.text)
    USART_DeInit                             0x0800ba71   Thumb Code   134  stm32f10x_usart.o(.text)
    USART_Init                               0x0800baf7   Thumb Code   210  stm32f10x_usart.o(.text)
    USART_StructInit                         0x0800bbc9   Thumb Code    24  stm32f10x_usart.o(.text)
    USART_ClockInit                          0x0800bbe1   Thumb Code    34  stm32f10x_usart.o(.text)
    USART_ClockStructInit                    0x0800bc03   Thumb Code    12  stm32f10x_usart.o(.text)
    USART_Cmd                                0x0800bc0f   Thumb Code    24  stm32f10x_usart.o(.text)
    USART_ITConfig                           0x0800bc27   Thumb Code    74  stm32f10x_usart.o(.text)
    USART_DMACmd                             0x0800bc71   Thumb Code    18  stm32f10x_usart.o(.text)
    USART_SetAddress                         0x0800bc83   Thumb Code    18  stm32f10x_usart.o(.text)
    USART_WakeUpConfig                       0x0800bc95   Thumb Code    18  stm32f10x_usart.o(.text)
    USART_ReceiverWakeUpCmd                  0x0800bca7   Thumb Code    24  stm32f10x_usart.o(.text)
    USART_LINBreakDetectLengthConfig         0x0800bcbf   Thumb Code    18  stm32f10x_usart.o(.text)
    USART_LINCmd                             0x0800bcd1   Thumb Code    24  stm32f10x_usart.o(.text)
    USART_SendData                           0x0800bce9   Thumb Code     8  stm32f10x_usart.o(.text)
    USART_ReceiveData                        0x0800bcf1   Thumb Code    10  stm32f10x_usart.o(.text)
    USART_SendBreak                          0x0800bcfb   Thumb Code    10  stm32f10x_usart.o(.text)
    USART_SetGuardTime                       0x0800bd05   Thumb Code    16  stm32f10x_usart.o(.text)
    USART_SetPrescaler                       0x0800bd15   Thumb Code    16  stm32f10x_usart.o(.text)
    USART_SmartCardCmd                       0x0800bd25   Thumb Code    24  stm32f10x_usart.o(.text)
    USART_SmartCardNACKCmd                   0x0800bd3d   Thumb Code    24  stm32f10x_usart.o(.text)
    USART_HalfDuplexCmd                      0x0800bd55   Thumb Code    24  stm32f10x_usart.o(.text)
    USART_OverSampling8Cmd                   0x0800bd6d   Thumb Code    22  stm32f10x_usart.o(.text)
    USART_OneBitMethodCmd                    0x0800bd83   Thumb Code    24  stm32f10x_usart.o(.text)
    USART_IrDAConfig                         0x0800bd9b   Thumb Code    18  stm32f10x_usart.o(.text)
    USART_IrDACmd                            0x0800bdad   Thumb Code    24  stm32f10x_usart.o(.text)
    USART_GetFlagStatus                      0x0800bdc5   Thumb Code    26  stm32f10x_usart.o(.text)
    USART_ClearFlag                          0x0800bddf   Thumb Code    18  stm32f10x_usart.o(.text)
    USART_GetITStatus                        0x0800bdf1   Thumb Code    84  stm32f10x_usart.o(.text)
    USART_ClearITPendingBit                  0x0800be45   Thumb Code    52  stm32f10x_usart.o(.text)
    STM_EVAL_LEDInit                         0x0800be79   Thumb Code    52  stm3210x_eval.o(.text)
    STM_EVAL_LEDOn                           0x0800bead   Thumb Code    16  stm3210x_eval.o(.text)
    STM_EVAL_LEDOff                          0x0800bebd   Thumb Code    16  stm3210x_eval.o(.text)
    STM_EVAL_LEDToggle                       0x0800becd   Thumb Code    26  stm3210x_eval.o(.text)
    STM_EVAL_PBInit                          0x0800bee7   Thumb Code     2  stm3210x_eval.o(.text)
    STM_EVAL_PBGetState                      0x0800bee9   Thumb Code    22  stm3210x_eval.o(.text)
    STM_EVAL_COMInit                         0x0800beff   Thumb Code   156  stm3210x_eval.o(.text)
    Is_Leap_Year                             0x0800bf9b   Thumb Code    50  stm3210x_eval.o(.text)
    RTC_Set                                  0x0800bfcd   Thumb Code   184  stm3210x_eval.o(.text)
    RTC_Get                                  0x0800c085   Thumb Code   224  stm3210x_eval.o(.text)
    RTC_Configuration                        0x0800c165   Thumb Code    88  stm3210x_eval.o(.text)
    RTC_init                                 0x0800c1bd   Thumb Code   108  stm3210x_eval.o(.text)
    SD_LowLevel_DeInit                       0x0800c229   Thumb Code   152  stm3210x_eval.o(.text)
    SD_LowLevel_Init                         0x0800c2c1   Thumb Code    90  stm3210x_eval.o(.text)
    SD_LowLevel_DMA_TxConfig                 0x0800c31b   Thumb Code    96  stm3210x_eval.o(.text)
    SD_LowLevel_DMA_RxConfig                 0x0800c37b   Thumb Code    96  stm3210x_eval.o(.text)
    SD_DMAEndOfTransferStatus                0x0800c3db   Thumb Code    10  stm3210x_eval.o(.text)
    IWDG_Config                              0x0800c3f9   Thumb Code    34  stm3210x_eval.o(.text)
    SD_DeInit                                0x0800c435   Thumb Code     8  stm3210x_eval_sdio_sd.o(.text)
    SD_EnableWideBusOperation                0x0800c7fb   Thumb Code   164  stm3210x_eval_sdio_sd.o(.text)
    SD_SelectDeselect                        0x0800c89f   Thumb Code    48  stm3210x_eval_sdio_sd.o(.text)
    SD_GetCardInfo                           0x0800c8cf   Thumb Code   742  stm3210x_eval_sdio_sd.o(.text)
    SD_InitializeCards                       0x0800ccb1   Thumb Code   294  stm3210x_eval_sdio_sd.o(.text)
    SD_PowerON                               0x0800ce7f   Thumb Code   400  stm3210x_eval_sdio_sd.o(.text)
    SD_Init                                  0x0800d00f   Thumb Code   124  stm3210x_eval_sdio_sd.o(.text)
    SD_SendStatus                            0x0800d08b   Thumb Code   114  stm3210x_eval_sdio_sd.o(.text)
    SD_Detect                                0x0800d0fd   Thumb Code    16  stm3210x_eval_sdio_sd.o(.text)
    SD_GetState                              0x0800d10d   Thumb Code    38  stm3210x_eval_sdio_sd.o(.text)
    SD_GetStatus                             0x0800d133   Thumb Code    30  stm3210x_eval_sdio_sd.o(.text)
    SD_PowerOFF                              0x0800d151   Thumb Code    14  stm3210x_eval_sdio_sd.o(.text)
    SD_SendSDStatus                          0x0800d15f   Thumb Code   368  stm3210x_eval_sdio_sd.o(.text)
    SD_GetCardStatus                         0x0800d2cf   Thumb Code   156  stm3210x_eval_sdio_sd.o(.text)
    SD_ReadBlock                             0x0800d36b   Thumb Code   210  stm3210x_eval_sdio_sd.o(.text)
    SD_ReadMultiBlocks                       0x0800d43d   Thumb Code   262  stm3210x_eval_sdio_sd.o(.text)
    SD_StopTransfer                          0x0800d543   Thumb Code    46  stm3210x_eval_sdio_sd.o(.text)
    SD_WaitReadOperation                     0x0800d571   Thumb Code   102  stm3210x_eval_sdio_sd.o(.text)
    SD_WriteBlock                            0x0800d5d7   Thumb Code   208  stm3210x_eval_sdio_sd.o(.text)
    SD_WriteMultiBlocks                      0x0800d6a7   Thumb Code   312  stm3210x_eval_sdio_sd.o(.text)
    SD_WaitWriteOperation                    0x0800d7df   Thumb Code   102  stm3210x_eval_sdio_sd.o(.text)
    SD_GetTransferState                      0x0800d845   Thumb Code    18  stm3210x_eval_sdio_sd.o(.text)
    SD_Erase                                 0x0800da0d   Thumb Code   298  stm3210x_eval_sdio_sd.o(.text)
    SD_ProcessIRQSrc                         0x0800db37   Thumb Code   162  stm3210x_eval_sdio_sd.o(.text)
    SD_ProcessDMAIRQ                         0x0800dbd9   Thumb Code    26  stm3210x_eval_sdio_sd.o(.text)
    convert_from_bytes_to_power_of_two       0x0800dbf3   Thumb Code    18  stm3210x_eval_sdio_sd.o(.text)
    disk_initialize                          0x0800dc31   Thumb Code    34  diskio.o(.text)
    disk_status                              0x0800dc53   Thumb Code    22  diskio.o(.text)
    disk_read                                0x0800dc69   Thumb Code    38  diskio.o(.text)
    disk_write                               0x0800dc8f   Thumb Code    38  diskio.o(.text)
    disk_ioctl                               0x0800dcb5   Thumb Code    34  diskio.o(.text)
    get_fattime                              0x0800dcd7   Thumb Code     4  diskio.o(.text)
    clust2sect                               0x0800e0d1   Thumb Code    32  ff.o(.text)
    get_fat                                  0x0800e0f1   Thumb Code   232  ff.o(.text)
    put_fat                                  0x0800e1d9   Thumb Code   310  ff.o(.text)
    f_mount                                  0x0800f607   Thumb Code    96  ff.o(.text)
    f_open                                   0x0800f667   Thumb Code   474  ff.o(.text)
    f_read                                   0x0800f841   Thumb Code   536  ff.o(.text)
    f_write                                  0x0800fa59   Thumb Code   598  ff.o(.text)
    f_sync                                   0x0800fcaf   Thumb Code   202  ff.o(.text)
    f_close                                  0x0800fd79   Thumb Code    46  ff.o(.text)
    f_lseek                                  0x0800fda7   Thumb Code   804  ff.o(.text)
    f_opendir                                0x080100cb   Thumb Code   190  ff.o(.text)
    f_closedir                               0x08010189   Thumb Code    42  ff.o(.text)
    f_readdir                                0x080101b3   Thumb Code   120  ff.o(.text)
    f_stat                                   0x0801022b   Thumb Code    88  ff.o(.text)
    f_getfree                                0x08010283   Thumb Code   274  ff.o(.text)
    f_truncate                               0x08010395   Thumb Code   236  ff.o(.text)
    f_unlink                                 0x08010481   Thumb Code   230  ff.o(.text)
    f_mkdir                                  0x08010567   Thumb Code   388  ff.o(.text)
    f_chmod                                  0x080106eb   Thumb Code   118  ff.o(.text)
    f_utime                                  0x08010761   Thumb Code   116  ff.o(.text)
    f_rename                                 0x080107d5   Thumb Code   380  ff.o(.text)
    f_mkfs                                   0x08010951   Thumb Code  1596  ff.o(.text)
    f_gets                                   0x08010f8d   Thumb Code    86  ff.o(.text)
    f_putc                                   0x08011031   Thumb Code    64  ff.o(.text)
    f_puts                                   0x08011071   Thumb Code    74  ff.o(.text)
    f_printf                                 0x080110bb   Thumb Code   634  ff.o(.text)
    FATFS_LinkDriver                         0x08011335   Thumb Code    70  ff_gen_drv.o(.text)
    FATFS_UnLinkDriver                       0x0801137b   Thumb Code    54  ff_gen_drv.o(.text)
    FATFS_GetAttachedDriversNbr              0x080113b1   Thumb Code     6  ff_gen_drv.o(.text)
    SD_initialize                            0x080113bd   Thumb Code    22  sd_diskio.o(.text)
    SD_status                                0x080113d3   Thumb Code    32  sd_diskio.o(.text)
    SD_read                                  0x080113f3   Thumb Code   122  sd_diskio.o(.text)
    SD_write                                 0x0801146d   Thumb Code   122  sd_diskio.o(.text)
    SD_ioctl                                 0x080114e7   Thumb Code   100  sd_diskio.o(.text)
    ff_memalloc                              0x08011555   Thumb Code    12  syscall.o(.text)
    ff_memfree                               0x08011561   Thumb Code    12  syscall.o(.text)
    ff_convert                               0x0801156d   Thumb Code    70  unicode.o(.text)
    ff_wtoupper                              0x080115b3   Thumb Code    46  unicode.o(.text)
    malloc                                   0x080115ed   Thumb Code    94  h1_alloc.o(.text)
    free                                     0x0801164b   Thumb Code    78  h1_free.o(.text)
    __aeabi_uldivmod                         0x08011699   Thumb Code     0  lludivv7m.o(.text)
    _ll_udiv                                 0x08011699   Thumb Code   238  lludivv7m.o(.text)
    __aeabi_memcpy                           0x08011787   Thumb Code     0  rt_memcpy_v6.o(.text)
    __rt_memcpy                              0x08011787   Thumb Code   138  rt_memcpy_v6.o(.text)
    _memcpy_lastbytes                        0x080117ed   Thumb Code     0  rt_memcpy_v6.o(.text)
    __use_two_region_memory                  0x08011811   Thumb Code     2  heapauxi.o(.text)
    __rt_heap_escrow                         0x08011813   Thumb Code     2  heapauxi.o(.text)
    __rt_heap_expand                         0x08011815   Thumb Code     2  heapauxi.o(.text)
    __rt_heap_descriptor                     0x08011819   Thumb Code     8  rt_heap_descriptor_intlibspace.o(.text)
    __use_no_heap                            0x08011821   Thumb Code     2  hguard.o(.text)
    __heap$guard                             0x08011823   Thumb Code     2  hguard.o(.text)
    _terminate_user_alloc                    0x08011825   Thumb Code     2  init_alloc.o(.text)
    _init_user_alloc                         0x08011827   Thumb Code     2  init_alloc.o(.text)
    __Heap_Full                              0x08011829   Thumb Code    34  init_alloc.o(.text)
    __Heap_Broken                            0x0801184b   Thumb Code     6  init_alloc.o(.text)
    _init_alloc                              0x08011851   Thumb Code    94  init_alloc.o(.text)
    __Heap_Initialize                        0x080118af   Thumb Code    10  h1_init.o(.text)
    __Heap_DescSize                          0x080118b9   Thumb Code     4  h1_init.o(.text)
    __aeabi_memcpy4                          0x080118bd   Thumb Code     0  rt_memcpy_w.o(.text)
    __aeabi_memcpy8                          0x080118bd   Thumb Code     0  rt_memcpy_w.o(.text)
    __rt_memcpy_w                            0x080118bd   Thumb Code   100  rt_memcpy_w.o(.text)
    _memcpy_lastbytes_aligned                0x08011905   Thumb Code     0  rt_memcpy_w.o(.text)
    __user_libspace                          0x08011921   Thumb Code     8  libspace.o(.text)
    __user_perproc_libspace                  0x08011921   Thumb Code     0  libspace.o(.text)
    __user_perthread_libspace                0x08011921   Thumb Code     0  libspace.o(.text)
    __Heap_ProvideMemory                     0x08011929   Thumb Code    52  h1_extend.o(.text)
    __rt_SIGRTMEM                            0x0801195d   Thumb Code    14  defsig_rtmem_outer.o(.text)
    __I$use$semihosting                      0x0801196b   Thumb Code     0  use_no_semi.o(.text)
    __use_no_semihosting_swi                 0x0801196b   Thumb Code     2  use_no_semi.o(.text)
    __semihosting_library_function           0x0801196d   Thumb Code     0  indicate_semi.o(.text)
    __user_setup_stackheap                   0x0801196d   Thumb Code    74  sys_stackheap_outer.o(.text)
    exit                                     0x080119b7   Thumb Code    12  exit.o(.text)
    __sig_exit                               0x080119c3   Thumb Code    10  defsig_exit.o(.text)
    __rt_SIGRTMEM_inner                      0x080119cd   Thumb Code    22  defsig_rtmem_inner.o(.text)
    _sys_exit                                0x08011a1d   Thumb Code     8  sys_exit.o(.text)
    __default_signal_display                 0x08011a29   Thumb Code    50  defsig_general.o(.text)
    _ttywrch                                 0x08011a5b   Thumb Code    14  sys_wrch.o(.text)
    CustomHID_DeviceDescriptor               0x08011a68   Data          18  usb_desc.o(.constdata)
    CustomHID_ConfigDescriptor               0x08011a7a   Data          41  usb_desc.o(.constdata)
    CustomHID_ReportDescriptor               0x08011aa3   Data          29  usb_desc.o(.constdata)
    CustomHID_StringLangID                   0x08011ac0   Data           4  usb_desc.o(.constdata)
    CustomHID_StringVendor                   0x08011ac4   Data          38  usb_desc.o(.constdata)
    CustomHID_StringProduct                  0x08011aea   Data          32  usb_desc.o(.constdata)
    abyCfgCurveUBuf                          0x08011b0a   Data         400  display.o(.constdata)
    abyCfgCurveIBuf                          0x08011c9a   Data         400  display.o(.constdata)
    aBitMask                                 0x08011e2a   Data           8  display.o(.constdata)
    abyFontDigAlph                           0x08011e32   Data        1072  display.o(.constdata)
    FontChinese                              0x08012262   Data         512  display.o(.constdata)
    abyFontL2R5x7                            0x08012462   Data         126  display.o(.constdata)
    abyFontT2B5x7                            0x080124e0   Data          90  display.o(.constdata)
    abyFontB2T5x7                            0x0801253a   Data          90  display.o(.constdata)
    abyLogoBmp                               0x08012594   Data         480  display.o(.constdata)
    abyADCChn                                0x08012774   Data           5  ctrl.o(.constdata)
    awdVoltTypeValue                         0x0801277a   Data           8  ctrl.o(.constdata)
    awdCurTypeValue                          0x08012782   Data          12  ctrl.o(.constdata)
    cawdAD2CelTab                            0x0801278e   Data         316  ctrl.o(.constdata)
    testIData                                0x080128ca   Data        2000  ctrl.o(.constdata)
    testUData                                0x0801309a   Data        2000  ctrl.o(.constdata)
    castChgCfgData                           0x0801386a   Data         264  db.o(.constdata)
    table_week                               0x08013974   Data          12  stm3210x_eval.o(.constdata)
    mon_table                                0x08013980   Data          12  stm3210x_eval.o(.constdata)
    GPIO_PIN                                 0x0801398c   Data           8  stm3210x_eval.o(.constdata)
    GPIO_CLK                                 0x08013994   Data          16  stm3210x_eval.o(.constdata)
    BUTTON_PIN                               0x080139a4   Data          16  stm3210x_eval.o(.constdata)
    BUTTON_CLK                               0x080139b4   Data          32  stm3210x_eval.o(.constdata)
    BUTTON_EXTI_LINE                         0x080139d4   Data          16  stm3210x_eval.o(.constdata)
    BUTTON_PORT_SOURCE                       0x080139e4   Data          16  stm3210x_eval.o(.constdata)
    BUTTON_PIN_SOURCE                        0x080139f4   Data          16  stm3210x_eval.o(.constdata)
    BUTTON_IRQn                              0x08013a04   Data          16  stm3210x_eval.o(.constdata)
    COM_USART_CLK                            0x08013a14   Data           8  stm3210x_eval.o(.constdata)
    COM_TX_PORT_CLK                          0x08013a1c   Data           8  stm3210x_eval.o(.constdata)
    COM_RX_PORT_CLK                          0x08013a24   Data           8  stm3210x_eval.o(.constdata)
    COM_TX_PIN                               0x08013a2c   Data           4  stm3210x_eval.o(.constdata)
    COM_RX_PIN                               0x08013a30   Data           4  stm3210x_eval.o(.constdata)
    Region$$Table$$Base                      0x08013fb0   Number         0  anon$$obj.o(Region$$Table)
    Region$$Table$$Limit                     0x08013fd0   Number         0  anon$$obj.o(Region$$Table)
    cbyFlashData                             0x08016000   Data        2048  db.o(.ARM.__AT_0x08016000)
    HSEStartUpStatus                         0x20000000   Data           1  hw_config.o(.data)
    EXTI_InitStructure                       0x20000004   Data           8  hw_config.o(.data)
    b_usb                                    0x2000000c   Data           1  hw_config.o(.data)
    b_tf                                     0x2000000d   Data           1  hw_config.o(.data)
    b_mcp                                    0x2000000e   Data           1  hw_config.o(.data)
    b_fs                                     0x2000000f   Data           1  hw_config.o(.data)
    fs_try_cnt                               0x20000010   Data           1  hw_config.o(.data)
    PrevXferComplete                         0x20000014   Data           1  main.o(.data)
    Flag_1ms                                 0x20000015   Data           1  main.o(.data)
    Flag_10ms                                0x20000016   Data           1  main.o(.data)
    Flag_500ms                               0x20000017   Data           1  main.o(.data)
    Flag_1s                                  0x20000018   Data           1  main.o(.data)
    tmp                                      0x2000001c   Data           4  main.o(.data)
    tmp1                                     0x20000020   Data           4  main.o(.data)
    tmp_flag                                 0x20000024   Data           4  main.o(.data)
    Mass_Memory_Size                         0x20000028   Data           8  mass_mal.o(.data)
    Mass_Block_Size                          0x20000030   Data           8  mass_mal.o(.data)
    Mass_Block_Count                         0x20000038   Data           8  mass_mal.o(.data)
    Status                                   0x20000040   Data           4  mass_mal.o(.data)
    SystemCoreClock                          0x20000048   Data           4  system_stm32f10x.o(.data)
    AHBPrescTable                            0x2000004c   Data          16  system_stm32f10x.o(.data)
    CustomHID_StringSerial                   0x2000005c   Data          26  usb_desc.o(.data)
    wIstr                                    0x20000078   Data           2  usb_istr.o(.data)
    bIntPackSOF                              0x2000007a   Data           1  usb_istr.o(.data)
    esof_counter                             0x2000007c   Data           4  usb_istr.o(.data)
    wCNTR                                    0x20000080   Data           4  usb_istr.o(.data)
    pEpInt_IN                                0x20000084   Data          28  usb_istr.o(.data)
    pEpInt_OUT                               0x200000a0   Data          28  usb_istr.o(.data)
    ProtocolValue                            0x200000bc   Data           4  usb_prop.o(.data)
    EXTI_Enable                              0x200000c0   Data           1  usb_prop.o(.data)
    Request                                  0x200000c1   Data           1  usb_prop.o(.data)
    Report_Buf                               0x200000c2   Data           2  usb_prop.o(.data)
    Device_Table                             0x200000c4   Data           2  usb_prop.o(.data)
    Device_Property                          0x200000c8   Data          48  usb_prop.o(.data)
    User_Standard_Requests                   0x200000f8   Data          36  usb_prop.o(.data)
    Device_Descriptor                        0x2000011c   Data           8  usb_prop.o(.data)
    Config_Descriptor                        0x20000124   Data           8  usb_prop.o(.data)
    CustomHID_Report_Descriptor              0x2000012c   Data           8  usb_prop.o(.data)
    CustomHID_Hid_Descriptor                 0x20000134   Data           8  usb_prop.o(.data)
    String_Descriptor                        0x2000013c   Data          32  usb_prop.o(.data)
    bDeviceState                             0x2000015c   Data           4  usb_pwr.o(.data)
    fSuspendEnabled                          0x20000160   Data           1  usb_pwr.o(.data)
    ResumeS                                  0x20000161   Data           2  usb_pwr.o(.data)
    remotewakeupon                           0x20000164   Data           4  usb_pwr.o(.data)
    byMenuLevel                              0x20000168   Data           1  display.o(.data)
    byMenuL0CurIndex                         0x20000169   Data           1  display.o(.data)
    byMenuL1CurIndex                         0x2000016a   Data           1  display.o(.data)
    byMenuL2CurIndex                         0x2000016b   Data           1  display.o(.data)
    byMID                                    0x2000016c   Data           1  display.o(.data)
    wdML1Offset                              0x2000016e   Data           2  display.o(.data)
    wdML1OffsetMax                           0x20000170   Data           2  display.o(.data)
    wdML1OffsetSel                           0x20000172   Data           2  display.o(.data)
    wdML2CfgOffset                           0x20000174   Data           2  display.o(.data)
    wdML2CfgOffsetMax                        0x20000176   Data           2  display.o(.data)
    wdML2CfgOffsetSel                        0x20000178   Data           2  display.o(.data)
    wdML2ChgOffset                           0x2000017a   Data           2  display.o(.data)
    wdML2ChgOffsetMax                        0x2000017c   Data           2  display.o(.data)
    wdML2ChgOffsetSel                        0x2000017e   Data           2  display.o(.data)
    CurX                                     0x20000180   Data           2  display.o(.data)
    CurY                                     0x20000182   Data           2  display.o(.data)
    byLineWidth                              0x20000184   Data           1  display.o(.data)
    wdCoTimeMin                              0x20000186   Data           2  display.o(.data)
    wdCoTimeScale                            0x20000188   Data           2  display.o(.data)
    wdCoTimeMarkSpace                        0x2000018a   Data           1  display.o(.data)
    wdCoUMin                                 0x2000018c   Data           2  display.o(.data)
    wdCoUMax                                 0x2000018e   Data           2  display.o(.data)
    wdCoUMarkSpace                           0x20000190   Data           1  display.o(.data)
    wdCoUScale                               0x20000192   Data           2  display.o(.data)
    wdCoIMarkSpace                           0x20000194   Data           1  display.o(.data)
    wdCoIMin                                 0x20000196   Data           2  display.o(.data)
    wdCoIMax                                 0x20000198   Data           2  display.o(.data)
    wdCoIScale                               0x2000019a   Data           2  display.o(.data)
    byDispNum                                0x2000019c   Data           1  display.o(.data)
    CurveTMin                                0x2000019e   Data           2  display.o(.data)
    CurveTMax                                0x200001a0   Data           2  display.o(.data)
    CurveUMin                                0x200001a2   Data           2  display.o(.data)
    CurveUMax                                0x200001a4   Data           2  display.o(.data)
    CurveIMin                                0x200001a6   Data           2  display.o(.data)
    CurveIMax                                0x200001a8   Data           2  display.o(.data)
    UnitT                                    0x200001aa   Data           2  display.o(.data)
    UnitU                                    0x200001ac   Data           2  display.o(.data)
    UnitI                                    0x200001ae   Data           2  display.o(.data)
    TMarkSpace                               0x200001b0   Data           2  display.o(.data)
    UMarkSpace                               0x200001b2   Data           2  display.o(.data)
    IMarkSpace                               0x200001b4   Data           2  display.o(.data)
    dwdDispUITCnt                            0x200001b8   Data           4  display.o(.data)
    wdDispCurUITFileInex                     0x200001bc   Data           2  display.o(.data)
    iDispCurErr                              0x200001c0   Data           4  display.o(.data)
    dwdDispChgTmLen                          0x200001c4   Data           4  display.o(.data)
    dwdDispChgCapacity                       0x200001c8   Data           4  display.o(.data)
    byState                                  0x200001d8   Data           1  ctrl.o(.data)
    byChgStep                                0x200001d9   Data           1  ctrl.o(.data)
    byErr                                    0x200001da   Data           1  ctrl.o(.data)
    bPowerUp                                 0x200001db   Data           1  ctrl.o(.data)
    bFirst                                   0x200001dc   Data           1  ctrl.o(.data)
    bChgDisable                              0x200001dd   Data           1  ctrl.o(.data)
    bySWCnt                                  0x200001de   Data           1  ctrl.o(.data)
    bTurnOn                                  0x200001df   Data           1  ctrl.o(.data)
    bTurnOff                                 0x200001e0   Data           1  ctrl.o(.data)
    wdPwrCnt                                 0x200001e2   Data           2  ctrl.o(.data)
    bADC                                     0x200001e4   Data           1  ctrl.o(.data)
    byADCCnt                                 0x200001e5   Data           1  ctrl.o(.data)
    byVolFiltCnt                             0x200001e6   Data           1  ctrl.o(.data)
    byCurrFiltCnt                            0x200001e7   Data           1  ctrl.o(.data)
    wdUPwm                                   0x200001e8   Data           2  ctrl.o(.data)
    wdIPwm                                   0x200001ea   Data           2  ctrl.o(.data)
    wdICurPwm                                0x200001ec   Data           2  ctrl.o(.data)
    bTest                                    0x200001ee   Data           1  ctrl.o(.data)
    bPCConnect                               0x200001ef   Data           1  ctrl.o(.data)
    bBTP                                     0x200001f0   Data           1  ctrl.o(.data)
    bBTN                                     0x200001f1   Data           1  ctrl.o(.data)
    bACLow                                   0x200001f2   Data           1  ctrl.o(.data)
    bACOff                                   0x200001f3   Data           1  ctrl.o(.data)
    bTem1Hi                                  0x200001f4   Data           1  ctrl.o(.data)
    bTimerPu                                 0x200001f5   Data           1  ctrl.o(.data)
    ISet                                     0x200001f6   Data           1  ctrl.o(.data)
    CSet                                     0x200001f7   Data           1  ctrl.o(.data)
    bSWRyInhi                                0x200001f8   Data           1  ctrl.o(.data)
    bSWRyOut                                 0x200001f9   Data           1  ctrl.o(.data)
    bSWMosOn                                 0x200001fa   Data           1  ctrl.o(.data)
    bSWFanOn                                 0x200001fb   Data           1  ctrl.o(.data)
    bSWPowerON                               0x200001fc   Data           1  ctrl.o(.data)
    wdUPwmLast                               0x200001fe   Data           2  ctrl.o(.data)
    wdIPwmLast                               0x20000200   Data           2  ctrl.o(.data)
    bSWRyInhiLast                            0x20000202   Data           1  ctrl.o(.data)
    bSWRyOutLast                             0x20000203   Data           1  ctrl.o(.data)
    bSWMosOnLast                             0x20000204   Data           1  ctrl.o(.data)
    bSWFanOnLast                             0x20000205   Data           1  ctrl.o(.data)
    bSWPowerONLast                           0x20000206   Data           1  ctrl.o(.data)
    bLEDR                                    0x20000207   Data           1  ctrl.o(.data)
    bLEDY                                    0x20000208   Data           1  ctrl.o(.data)
    bLEDG                                    0x20000209   Data           1  ctrl.o(.data)
    dwdCapacity                              0x20000210   Data           8  ctrl.o(.data)
    cTemp1                                   0x20000218   Data           1  ctrl.o(.data)
    cTemp2                                   0x20000219   Data           1  ctrl.o(.data)
    wdOutVoltage                             0x2000021a   Data           2  ctrl.o(.data)
    wdBtVoltage                              0x2000021c   Data           2  ctrl.o(.data)
    wdCurrent                                0x2000021e   Data           2  ctrl.o(.data)
    wdLastCurrent                            0x20000220   Data           2  ctrl.o(.data)
    wdVoltCalib                              0x20000222   Data           2  ctrl.o(.data)
    wdCurCalib                               0x20000224   Data           2  ctrl.o(.data)
    byVoltType                               0x20000226   Data           1  ctrl.o(.data)
    byCurType                                0x20000227   Data           1  ctrl.o(.data)
    byCSetType                               0x20000228   Data           1  ctrl.o(.data)
    bGetVal                                  0x20000229   Data           1  ctrl.o(.data)
    bySaveUITCnt                             0x2000022a   Data           1  ctrl.o(.data)
    byBTTestCnt                              0x2000022b   Data           1  ctrl.o(.data)
    byJudgeWaitCnt                           0x2000022c   Data           1  ctrl.o(.data)
    KeyCode                                  0x2000022d   Data           1  ctrl.o(.data)
    KeyStatus                                0x2000022e   Data           1  ctrl.o(.data)
    bKey                                     0x2000022f   Data           1  ctrl.o(.data)
    LstKS                                    0x20000230   Data           1  ctrl.o(.data)
    CurKS                                    0x20000231   Data           1  ctrl.o(.data)
    LstKStatus                               0x20000232   Data           1  ctrl.o(.data)
    KeyKeepTL                                0x20000234   Data           2  ctrl.o(.data)
    KeyChangeTL                              0x20000236   Data           1  ctrl.o(.data)
    byWaitTm                                 0x20000237   Data           1  ctrl.o(.data)
    wdWaitPCTimeLen                          0x20000238   Data           2  ctrl.o(.data)
    bConnectWithPC                           0x2000023a   Data           1  ctrl.o(.data)
    dwdTm                                    0x2000023c   Data           4  ctrl.o(.data)
    wdT1                                     0x20000240   Data           2  ctrl.o(.data)
    wdT2                                     0x20000242   Data           2  ctrl.o(.data)
    wdT3                                     0x20000244   Data           2  ctrl.o(.data)
    wdT4                                     0x20000246   Data           2  ctrl.o(.data)
    wdT5                                     0x20000248   Data           2  ctrl.o(.data)
    wdT6                                     0x2000024a   Data           2  ctrl.o(.data)
    wdCfgDataNum                             0x20000258   Data           2  db.o(.data)
    wdCurCfgDataIndex                        0x2000025a   Data           2  db.o(.data)
    bCfgDataExist                            0x2000025c   Data           1  db.o(.data)
    wdCurUITFileInex                         0x2000025e   Data           2  db.o(.data)
    wdUITFileNum                             0x20000260   Data           2  db.o(.data)
    dwdUITFileTotalNum                       0x20000262   Data           2  db.o(.data)
    dwdUITCnt                                0x20000264   Data           4  db.o(.data)
    dwdChargeBeginTm                         0x20000268   Data           4  db.o(.data)
    bRxdProc                                 0x2000026d   Data           1  communication.o(.data)
    bCom                                     0x2000026e   Data           1  communication.o(.data)
    byComWDGCnt                              0x2000026f   Data           1  communication.o(.data)
    StatusInfo                               0x20000272   Data           2  usb_core.o(.data)
    Data_Mul_MaxPacketSize                   0x20000274   Data           1  usb_core.o(.data)
    EPindex                                  0x20000278   Data           1  usb_init.o(.data)
    pInformation                             0x2000027c   Data           4  usb_init.o(.data)
    pProperty                                0x20000280   Data           4  usb_init.o(.data)
    SaveState                                0x20000284   Data           2  usb_init.o(.data)
    wInterrupt_Mask                          0x20000286   Data           2  usb_init.o(.data)
    pUser_Standard_Requests                  0x20000288   Data           4  usb_init.o(.data)
    SaveRState                               0x2000028c   Data           2  usb_int.o(.data)
    SaveTState                               0x2000028e   Data           2  usb_int.o(.data)
    b_rtc_int                                0x200002a4   Data           4  stm3210x_eval.o(.data)
    calendar                                 0x200002a8   Data           8  stm3210x_eval.o(.data)
    mcp_pwr                                  0x200002b0   Data           4  stm3210x_eval.o(.data)
    mcp_vol                                  0x200002b4   Data           4  stm3210x_eval.o(.data)
    GPIO_PORT                                0x200002b8   Data          16  stm3210x_eval.o(.data)
    BUTTON_PORT                              0x200002c8   Data          32  stm3210x_eval.o(.data)
    COM_USART                                0x200002e8   Data           8  stm3210x_eval.o(.data)
    COM_TX_PORT                              0x200002f0   Data           8  stm3210x_eval.o(.data)
    COM_RX_PORT                              0x200002f8   Data           8  stm3210x_eval.o(.data)
    TransmitFrameByteCounter                 0x20000300   Data           1  stm3210x_eval.o(.data)
    VoltageRMS                               0x20000302   Data           2  stm3210x_eval.o(.data)
    LineFrequency                            0x20000304   Data           2  stm3210x_eval.o(.data)
    ThermistorVoltage                        0x20000306   Data           2  stm3210x_eval.o(.data)
    PowerFactor                              0x20000308   Data           2  stm3210x_eval.o(.data)
    CurrentRMS                               0x2000030c   Data           4  stm3210x_eval.o(.data)
    ActivePower                              0x20000310   Data           4  stm3210x_eval.o(.data)
    ReactivePower                            0x20000314   Data           4  stm3210x_eval.o(.data)
    ApparentPower                            0x20000318   Data           4  stm3210x_eval.o(.data)
    ActiveEnergy                             0x2000031c   Data           4  stm3210x_eval.o(.data)
    ActiveEnergyCounter                      0x20000320   Data           2  stm3210x_eval.o(.data)
    CalibrationMode                          0x20000322   Data           1  stm3210x_eval.o(.data)
    CalibrationStart                         0x20000323   Data           1  stm3210x_eval.o(.data)
    commFlags                                0x20000324   Data           2  stm3210x_eval.o(.data)
    ReceiveFrameByteCounter                  0x20000326   Data           1  stm3210x_eval.o(.data)
    ReceiveFrameByteCount                    0x20000327   Data           1  stm3210x_eval.o(.data)
    GlobalChecksum                           0x20000328   Data           1  stm3210x_eval.o(.data)
    GlobalFirst                              0x20000329   Data           1  stm3210x_eval.o(.data)
    CommandArrayCounter                      0x2000032a   Data           1  stm3210x_eval.o(.data)
    StopCondition                            0x20000338   Data           4  stm3210x_eval_sdio_sd.o(.data)
    TransferError                            0x2000033c   Data           1  stm3210x_eval_sdio_sd.o(.data)
    TransferEnd                              0x20000340   Data           4  stm3210x_eval_sdio_sd.o(.data)
    DMAEndOfTransfer                         0x20000344   Data           4  stm3210x_eval_sdio_sd.o(.data)
    SD_Driver                                0x20000354   Data          20  sd_diskio.o(.data)
    mSDCardInfo                              0x20000368   Data          88  mass_mal.o(.bss)
    Receive_Buffer                           0x200003c0   Data          64  usb_endp.o(.bss)
    Receive_Buffer_Bak                       0x20000400   Data          64  usb_endp.o(.bss)
    EP                                       0x20000440   Data          32  usb_pwr.o(.bss)
    CurveUBuf                                0x20000460   Data         212  display.o(.bss)
    CurveIBuf                                0x20000534   Data         212  display.o(.bss)
    LcdData                                  0x20000608   Data        1680  lcd.o(.bss)
    awdADCValSample                          0x20000c98   Data          10  ctrl.o(.bss)
    awdADCMax                                0x20000ca2   Data          10  ctrl.o(.bss)
    awdADCMin                                0x20000cac   Data          10  ctrl.o(.bss)
    adwdADCSum                               0x20000cb8   Data          20  ctrl.o(.bss)
    awdADCVal                                0x20000ccc   Data          10  ctrl.o(.bss)
    stSelConfigData                          0x20000cd6   Data          48  ctrl.o(.bss)
    fs                                       0x20000d08   Data         560  db.o(.bss)
    stChargeCfgData                          0x20000f38   Data          44  db.o(.bss)
    acUITDataPath                            0x20000f64   Data          16  db.o(.bss)
    abyDBBuf                                 0x20000f74   Data        3072  db.o(.bss)
    acTempPath                               0x20001b74   Data          16  db.o(.bss)
    fp                                       0x20001b84   Data         556  db.o(.bss)
    bCfgValid                                0x20001db0   Data          50  db.o(.bss)
    SendBuf                                  0x20001de2   Data          64  communication.o(.bss)
    Device_Info                              0x20001e54   Data          28  usb_init.o(.bss)
    SDCardInfo                               0x20001ea0   Data          88  stm3210x_eval_sdio_sd.o(.bss)
    SDIO_InitStructure                       0x20001ef8   Data          24  stm3210x_eval_sdio_sd.o(.bss)
    SDIO_CmdInitStructure                    0x20001f10   Data          20  stm3210x_eval_sdio_sd.o(.bss)
    SDIO_DataInitStructure                   0x20001f24   Data          24  stm3210x_eval_sdio_sd.o(.bss)
    disk                                     0x20001f54   Data          12  ff_gen_drv.o(.bss)
    __libspace_start                         0x20001f60   Data          96  libspace.o(.bss)
    __temporary_stack_top$libspace           0x20001fc0   Data           0  libspace.o(.bss)



==============================================================================

Memory Map of the image

  Image Entry point : 0x08000131

  Load Region LR_IROM1 (Base: 0x08000000, Size: 0x00016b68, Max: 0x00080000, ABSOLUTE, COMPRESSED[0x000168f8])

    Execution Region ER_IROM1 (Base: 0x08000000, Size: 0x00016800, Max: 0x00080000, ABSOLUTE)

    Base Addr    Size         Type   Attr      Idx    E Section Name        Object

    0x08000000   0x00000130   Data   RO          681    RESET               startup_stm32f10x_hd.o
    0x08000130   0x00000008   Code   RO         1563  * !!!main             c_w.l(__main.o)
    0x08000138   0x00000034   Code   RO         1775    !!!scatter          c_w.l(__scatter.o)
    0x0800016c   0x0000005a   Code   RO         1773    !!dczerorl2         c_w.l(__dczerorl2.o)
    0x080001c6   0x00000002   PAD
    0x080001c8   0x0000001c   Code   RO         1777    !!handler_zi        c_w.l(__scatter_zi.o)
    0x080001e4   0x00000002   Code   RO         1713    .ARM.Collect$$libinit$$00000000  c_w.l(libinit.o)
    0x080001e6   0x00000000   Code   RO         1602    .ARM.Collect$$libinit$$00000002  c_w.l(libinit2.o)
    0x080001e6   0x00000008   Code   RO         1603    .ARM.Collect$$libinit$$00000003  c_w.l(libinit2.o)
    0x080001ee   0x00000000   Code   RO         1605    .ARM.Collect$$libinit$$00000008  c_w.l(libinit2.o)
    0x080001ee   0x00000000   Code   RO         1607    .ARM.Collect$$libinit$$0000000A  c_w.l(libinit2.o)
    0x080001ee   0x00000000   Code   RO         1609    .ARM.Collect$$libinit$$0000000C  c_w.l(libinit2.o)
    0x080001ee   0x00000000   Code   RO         1612    .ARM.Collect$$libinit$$0000000F  c_w.l(libinit2.o)
    0x080001ee   0x00000000   Code   RO         1614    .ARM.Collect$$libinit$$00000011  c_w.l(libinit2.o)
    0x080001ee   0x00000000   Code   RO         1616    .ARM.Collect$$libinit$$00000013  c_w.l(libinit2.o)
    0x080001ee   0x00000000   Code   RO         1618    .ARM.Collect$$libinit$$00000015  c_w.l(libinit2.o)
    0x080001ee   0x00000000   Code   RO         1620    .ARM.Collect$$libinit$$00000017  c_w.l(libinit2.o)
    0x080001ee   0x00000000   Code   RO         1622    .ARM.Collect$$libinit$$00000019  c_w.l(libinit2.o)
    0x080001ee   0x00000000   Code   RO         1624    .ARM.Collect$$libinit$$0000001B  c_w.l(libinit2.o)
    0x080001ee   0x00000000   Code   RO         1626    .ARM.Collect$$libinit$$0000001D  c_w.l(libinit2.o)
    0x080001ee   0x00000000   Code   RO         1628    .ARM.Collect$$libinit$$0000001F  c_w.l(libinit2.o)
    0x080001ee   0x00000000   Code   RO         1630    .ARM.Collect$$libinit$$00000021  c_w.l(libinit2.o)
    0x080001ee   0x00000000   Code   RO         1632    .ARM.Collect$$libinit$$00000023  c_w.l(libinit2.o)
    0x080001ee   0x00000000   Code   RO         1636    .ARM.Collect$$libinit$$0000002A  c_w.l(libinit2.o)
    0x080001ee   0x00000000   Code   RO         1638    .ARM.Collect$$libinit$$0000002C  c_w.l(libinit2.o)
    0x080001ee   0x00000000   Code   RO         1640    .ARM.Collect$$libinit$$0000002E  c_w.l(libinit2.o)
    0x080001ee   0x00000000   Code   RO         1642    .ARM.Collect$$libinit$$00000030  c_w.l(libinit2.o)
    0x080001ee   0x00000002   Code   RO         1643    .ARM.Collect$$libinit$$00000031  c_w.l(libinit2.o)
    0x080001f0   0x00000002   Code   RO         1770    .ARM.Collect$$libshutdown$$00000000  c_w.l(libshutdown.o)
    0x080001f2   0x00000000   Code   RO         1730    .ARM.Collect$$libshutdown$$00000003  c_w.l(libshutdown2.o)
    0x080001f2   0x00000000   Code   RO         1733    .ARM.Collect$$libshutdown$$00000006  c_w.l(libshutdown2.o)
    0x080001f2   0x00000000   Code   RO         1736    .ARM.Collect$$libshutdown$$00000009  c_w.l(libshutdown2.o)
    0x080001f2   0x00000000   Code   RO         1738    .ARM.Collect$$libshutdown$$0000000B  c_w.l(libshutdown2.o)
    0x080001f2   0x00000000   Code   RO         1741    .ARM.Collect$$libshutdown$$0000000E  c_w.l(libshutdown2.o)
    0x080001f2   0x00000002   Code   RO         1742    .ARM.Collect$$libshutdown$$0000000F  c_w.l(libshutdown2.o)
    0x080001f4   0x00000000   Code   RO         1567    .ARM.Collect$$rtentry$$00000000  c_w.l(rtentry.o)
    0x080001f4   0x00000000   Code   RO         1650    .ARM.Collect$$rtentry$$00000002  c_w.l(rtentry2.o)
    0x080001f4   0x00000006   Code   RO         1662    .ARM.Collect$$rtentry$$00000004  c_w.l(rtentry4.o)
    0x080001fa   0x00000000   Code   RO         1652    .ARM.Collect$$rtentry$$00000009  c_w.l(rtentry2.o)
    0x080001fa   0x00000004   Code   RO         1653    .ARM.Collect$$rtentry$$0000000A  c_w.l(rtentry2.o)
    0x080001fe   0x00000000   Code   RO         1655    .ARM.Collect$$rtentry$$0000000C  c_w.l(rtentry2.o)
    0x080001fe   0x00000008   Code   RO         1656    .ARM.Collect$$rtentry$$0000000D  c_w.l(rtentry2.o)
    0x08000206   0x00000002   Code   RO         1716    .ARM.Collect$$rtexit$$00000000  c_w.l(rtexit.o)
    0x08000208   0x00000000   Code   RO         1746    .ARM.Collect$$rtexit$$00000002  c_w.l(rtexit2.o)
    0x08000208   0x00000004   Code   RO         1747    .ARM.Collect$$rtexit$$00000003  c_w.l(rtexit2.o)
    0x0800020c   0x00000006   Code   RO         1748    .ARM.Collect$$rtexit$$00000004  c_w.l(rtexit2.o)
    0x08000212   0x00000002   PAD
    0x08000214   0x00000000   Code   RO         1668    .emb_text           c_w.l(maybetermalloc1.o)
    0x08000214   0x00000360   Code   RO            3    .text               hw_config.o
    0x08000574   0x00000098   Code   RO          181    .text               main.o
    0x0800060c   0x00000174   Code   RO          249    .text               mass_mal.o
    0x08000780   0x00000130   Code   RO          273    .text               stm32_it.o
    0x080008b0   0x000001e0   Code   RO          301    .text               system_stm32f10x.o
    0x08000a90   0x00000064   Code   RO          348    .text               usb_endp.o
    0x08000af4   0x000001c4   Code   RO          372    .text               usb_istr.o
    0x08000cb8   0x00000264   Code   RO          401    .text               usb_prop.o
    0x08000f1c   0x00000244   Code   RO          432    .text               usb_pwr.o
    0x08001160   0x00002b0c   Code   RO          459    .text               display.o
    0x08003c6c   0x0000072c   Code   RO          499    .text               lcd.o
    0x08004398   0x000000e8   Code   RO          526    .text               spi.o
    0x08004480   0x00002088   Code   RO          546    .text               ctrl.o
    0x08006508   0x00001034   Code   RO          586    .text               db.o
    0x0800753c   0x000004e0   Code   RO          641    .text               communication.o
    0x08007a1c   0x00000040   Code   RO          682    .text               startup_stm32f10x_hd.o
    0x08007a5c   0x00000b50   Code   RO          688    .text               usb_core.o
    0x080085ac   0x0000003c   Code   RO          711    .text               usb_init.o
    0x080085e8   0x0000033c   Code   RO          742    .text               usb_int.o
    0x08008924   0x0000005c   Code   RO          774    .text               usb_mem.o
    0x08008980   0x00000808   Code   RO          794    .text               usb_regs.o
    0x08009188   0x00000080   Code   RO          814    .text               usb_sil.o
    0x08009208   0x000000dc   Code   RO          834    .text               misc.o
    0x080092e4   0x0000044e   Code   RO          854    .text               stm32f10x_adc.o
    0x08009732   0x00000002   PAD
    0x08009734   0x000000c4   Code   RO          874    .text               stm32f10x_bkp.o
    0x080097f8   0x00000254   Code   RO          997    .text               stm32f10x_dma.o
    0x08009a4c   0x0000011c   Code   RO         1017    .text               stm32f10x_exti.o
    0x08009b68   0x000005bc   Code   RO         1037    .text               stm32f10x_flash.o
    0x0800a124   0x0000035c   Code   RO         1077    .text               stm32f10x_gpio.o
    0x0800a480   0x00000040   Code   RO         1117    .text               stm32f10x_iwdg.o
    0x0800a4c0   0x000000cc   Code   RO         1137    .text               stm32f10x_pwr.o
    0x0800a58c   0x000003a4   Code   RO         1157    .text               stm32f10x_rcc.o
    0x0800a930   0x00000160   Code   RO         1179    .text               stm32f10x_rtc.o
    0x0800aa90   0x000001c4   Code   RO         1199    .text               stm32f10x_sdio.o
    0x0800ac54   0x00000e1a   Code   RO         1239    .text               stm32f10x_tim.o
    0x0800ba6e   0x00000002   PAD
    0x0800ba70   0x00000408   Code   RO         1259    .text               stm32f10x_usart.o
    0x0800be78   0x000005bc   Code   RO         1299    .text               stm3210x_eval.o
    0x0800c434   0x000017fc   Code   RO         1325    .text               stm3210x_eval_sdio_sd.o
    0x0800dc30   0x000000b0   Code   RO         1353    .text               diskio.o
    0x0800dce0   0x00003654   Code   RO         1374    .text               ff.o
    0x08011334   0x00000088   Code   RO         1401    .text               ff_gen_drv.o
    0x080113bc   0x00000198   Code   RO         1424    .text               sd_diskio.o
    0x08011554   0x00000018   Code   RO         1447    .text               syscall.o
    0x0801156c   0x00000080   Code   RO         1470    .text               unicode.o
    0x080115ec   0x0000005e   Code   RO         1499    .text               c_w.l(h1_alloc.o)
    0x0801164a   0x0000004e   Code   RO         1501    .text               c_w.l(h1_free.o)
    0x08011698   0x000000ee   Code   RO         1557    .text               c_w.l(lludivv7m.o)
    0x08011786   0x0000008a   Code   RO         1559    .text               c_w.l(rt_memcpy_v6.o)
    0x08011810   0x00000006   Code   RO         1561    .text               c_w.l(heapauxi.o)
    0x08011816   0x00000002   PAD
    0x08011818   0x00000008   Code   RO         1575    .text               c_w.l(rt_heap_descriptor_intlibspace.o)
    0x08011820   0x00000004   Code   RO         1577    .text               c_w.l(hguard.o)
    0x08011824   0x0000008a   Code   RO         1579    .text               c_w.l(init_alloc.o)
    0x080118ae   0x0000000e   Code   RO         1583    .text               c_w.l(h1_init.o)
    0x080118bc   0x00000064   Code   RO         1597    .text               c_w.l(rt_memcpy_w.o)
    0x08011920   0x00000008   Code   RO         1646    .text               c_w.l(libspace.o)
    0x08011928   0x00000034   Code   RO         1670    .text               c_w.l(h1_extend.o)
    0x0801195c   0x0000000e   Code   RO         1674    .text               c_w.l(defsig_rtmem_outer.o)
    0x0801196a   0x00000002   Code   RO         1685    .text               c_w.l(use_no_semi.o)
    0x0801196c   0x00000000   Code   RO         1687    .text               c_w.l(indicate_semi.o)
    0x0801196c   0x0000004a   Code   RO         1688    .text               c_w.l(sys_stackheap_outer.o)
    0x080119b6   0x0000000c   Code   RO         1694    .text               c_w.l(exit.o)
    0x080119c2   0x0000000a   Code   RO         1696    .text               c_w.l(defsig_exit.o)
    0x080119cc   0x00000050   Code   RO         1702    .text               c_w.l(defsig_rtmem_inner.o)
    0x08011a1c   0x0000000c   Code   RO         1714    .text               c_w.l(sys_exit.o)
    0x08011a28   0x00000032   Code   RO         1724    .text               c_w.l(defsig_general.o)
    0x08011a5a   0x0000000e   Code   RO         1743    .text               c_w.l(sys_wrch.o)
    0x08011a68   0x000000a2   Data   RO          327    .constdata          usb_desc.o
    0x08011b0a   0x00000c6a   Data   RO          461    .constdata          display.o
    0x08012774   0x000010f6   Data   RO          548    .constdata          ctrl.o
    0x0801386a   0x00000108   Data   RO          589    .constdata          db.o
    0x08013972   0x00000002   PAD
    0x08013974   0x000000c0   Data   RO         1301    .constdata          stm3210x_eval.o
    0x08013a34   0x000000ba   Data   RO         1376    .constdata          ff.o
    0x08013aee   0x000004c0   Data   RO         1471    .constdata          unicode.o
    0x08013fae   0x00000002   PAD
    0x08013fb0   0x00000020   Data   RO         1771    Region$$Table       anon$$obj.o
    0x08013fd0   0x00002030   PAD
    0x08016000   0x00000800   Data   RO          587    .ARM.__AT_0x08016000  db.o


    Execution Region RW_IRAM1 (Base: 0x20000000, Size: 0x000029c0, Max: 0x00010000, ABSOLUTE, COMPRESSED[0x000000f8])

    Base Addr    Size         Type   Attr      Idx    E Section Name        Object

    0x20000000   0x00000011   Data   RW            4    .data               hw_config.o
    0x20000011   0x00000003   PAD
    0x20000014   0x00000014   Data   RW          182    .data               main.o
    0x20000028   0x0000001c   Data   RW          251    .data               mass_mal.o
    0x20000044   0x00000002   Data   RW          274    .data               stm32_it.o
    0x20000046   0x00000002   PAD
    0x20000048   0x00000014   Data   RW          302    .data               system_stm32f10x.o
    0x2000005c   0x0000001a   Data   RW          328    .data               usb_desc.o
    0x20000076   0x00000002   PAD
    0x20000078   0x00000044   Data   RW          373    .data               usb_istr.o
    0x200000bc   0x000000a0   Data   RW          402    .data               usb_prop.o
    0x2000015c   0x0000000c   Data   RW          434    .data               usb_pwr.o
    0x20000168   0x00000069   Data   RW          462    .data               display.o
    0x200001d1   0x00000007   PAD
    0x200001d8   0x00000080   Data   RW          549    .data               ctrl.o
    0x20000258   0x00000015   Data   RW          590    .data               db.o
    0x2000026d   0x00000004   Data   RW          643    .data               communication.o
    0x20000271   0x00000001   PAD
    0x20000272   0x00000003   Data   RW          689    .data               usb_core.o
    0x20000275   0x00000003   PAD
    0x20000278   0x00000014   Data   RW          713    .data               usb_init.o
    0x2000028c   0x00000004   Data   RW          743    .data               usb_int.o
    0x20000290   0x00000014   Data   RW         1158    .data               stm32f10x_rcc.o
    0x200002a4   0x0000008a   Data   RW         1302    .data               stm3210x_eval.o
    0x2000032e   0x00000002   PAD
    0x20000330   0x00000018   Data   RW         1327    .data               stm3210x_eval_sdio_sd.o
    0x20000348   0x00000006   Data   RW         1377    .data               ff.o
    0x2000034e   0x00000002   PAD
    0x20000350   0x00000018   Data   RW         1425    .data               sd_diskio.o
    0x20000368   0x00000058   Zero   RW          250    .bss                mass_mal.o
    0x200003c0   0x00000080   Zero   RW          349    .bss                usb_endp.o
    0x20000440   0x00000020   Zero   RW          433    .bss                usb_pwr.o
    0x20000460   0x000001a8   Zero   RW          460    .bss                display.o
    0x20000608   0x00000690   Zero   RW          500    .bss                lcd.o
    0x20000c98   0x0000006e   Zero   RW          547    .bss                ctrl.o
    0x20000d06   0x00000002   PAD
    0x20000d08   0x000010da   Zero   RW          588    .bss                db.o
    0x20001de2   0x00000070   Zero   RW          642    .bss                communication.o
    0x20001e52   0x00000002   PAD
    0x20001e54   0x0000001c   Zero   RW          712    .bss                usb_init.o
    0x20001e70   0x000000cc   Zero   RW         1326    .bss                stm3210x_eval_sdio_sd.o
    0x20001f3c   0x00000018   Zero   RW         1375    .bss                ff.o
    0x20001f54   0x0000000c   Zero   RW         1402    .bss                ff_gen_drv.o
    0x20001f60   0x00000060   Zero   RW         1647    .bss                c_w.l(libspace.o)
    0x20001fc0   0x00000600   Zero   RW          680    HEAP                startup_stm32f10x_hd.o
    0x200025c0   0x00000400   Zero   RW          679    STACK               startup_stm32f10x_hd.o


==============================================================================

Image component sizes


      Code (inc. data)   RO Data    RW Data    ZI Data      Debug   Object Name

      1248        124          0          4        112       7622   communication.o
      8328        982       4342        128        110      18780   ctrl.o
      4148        156       2312         21       4314      19453   db.o
       176          6          0          0          0       2197   diskio.o
     11020        340       3178        105        424      23058   display.o
     13908        136        186          6         24      35500   ff.o
       136          6          0          0         12       1365   ff_gen_drv.o
       864         38          0         17          0     320222   hw_config.o
      1836         16          0          0       1680       4405   lcd.o
       152         14          0         20          0       6338   main.o
       372         22          0         28         88       2571   mass_mal.o
       220         22          0          0          0       1909   misc.o
       408         10          0         24          0       2644   sd_diskio.o
       232          8          0          0          0       1017   spi.o
        64         26        304          0       2560        840   startup_stm32f10x_hd.o
      1468        112        192        138          0       9111   stm3210x_eval.o
      6140        220          0         24        204      23107   stm3210x_eval_sdio_sd.o
       304         38          0          2          0       3019   stm32_it.o
      1102         26          0          0          0      10941   stm32f10x_adc.o
       196          8          0          0          0       3572   stm32f10x_bkp.o
       596          8          0          0          0       4438   stm32f10x_dma.o
       284         10          0          0          0       2339   stm32f10x_exti.o
      1468         34          0          0          0       8034   stm32f10x_flash.o
       860         38          0          0          0       5749   stm32f10x_gpio.o
        64          6          0          0          0       1317   stm32f10x_iwdg.o
       204         14          0          0          0       1963   stm32f10x_pwr.o
       932         36          0         20          0       8960   stm32f10x_rcc.o
       352          6          0          0          0       2858   stm32f10x_rtc.o
       452         22          0          0          0       7188   stm32f10x_sdio.o
      3610         88          0          0          0      22240   stm32f10x_tim.o
      1032         22          0          0          0       8480   stm32f10x_usart.o
        24          0          0          0          0        701   syscall.o
       480         38          0         20          0       1879   system_stm32f10x.o
       128         12       1216          0          0       1585   unicode.o
      2896        114          0          3          0       8171   usb_core.o
         0          0        162         26          0       1116   usb_desc.o
       100         18          0          0        128       1691   usb_endp.o
        60         24          0         20         28       4250   usb_init.o
       828         34          0          4          0       2023   usb_int.o
       452         36          0         68          0       1671   usb_istr.o
        92          6          0          0          0       1474   usb_mem.o
       612         48          0        160          0       8026   usb_prop.o
       580         42          0         12         32       2999   usb_pwr.o
      2056         20          0          0          0      11789   usb_regs.o
       128          8          0          0          0       1494   usb_sil.o

    ----------------------------------------------------------------------
     70616       2994      20168        872       9720     620106   Object Totals
         0          0         32          0          0          0   (incl. Generated)
         4          0       8244         22          4          0   (incl. Padding)

    ----------------------------------------------------------------------

      Code (inc. data)   RO Data    RW Data    ZI Data      Debug   Library Member Name

        90          0          0          0          0          0   __dczerorl2.o
         8          0          0          0          0         68   __main.o
        52          8          0          0          0          0   __scatter.o
        28          0          0          0          0          0   __scatter_zi.o
        10          0          0          0          0         68   defsig_exit.o
        50          0          0          0          0         88   defsig_general.o
        80         58          0          0          0         76   defsig_rtmem_inner.o
        14          0          0          0          0         80   defsig_rtmem_outer.o
        12          0          0          0          0         72   exit.o
        94          0          0          0          0         80   h1_alloc.o
        52          0          0          0          0         68   h1_extend.o
        78          0          0          0          0         80   h1_free.o
        14          0          0          0          0         84   h1_init.o
         6          0          0          0          0        152   heapauxi.o
         4          0          0          0          0        136   hguard.o
         0          0          0          0          0          0   indicate_semi.o
       138          0          0          0          0        168   init_alloc.o
         2          0          0          0          0          0   libinit.o
        10          0          0          0          0          0   libinit2.o
         2          0          0          0          0          0   libshutdown.o
         2          0          0          0          0          0   libshutdown2.o
         8          4          0          0         96         68   libspace.o
       238          0          0          0          0        100   lludivv7m.o
         0          0          0          0          0          0   maybetermalloc1.o
         8          4          0          0          0         68   rt_heap_descriptor_intlibspace.o
       138          0          0          0          0         68   rt_memcpy_v6.o
       100          0          0          0          0         80   rt_memcpy_w.o
         0          0          0          0          0          0   rtentry.o
        12          0          0          0          0          0   rtentry2.o
         6          0          0          0          0          0   rtentry4.o
         2          0          0          0          0          0   rtexit.o
        10          0          0          0          0          0   rtexit2.o
        12          4          0          0          0         68   sys_exit.o
        74          0          0          0          0         80   sys_stackheap_outer.o
        14          0          0          0          0         76   sys_wrch.o
         2          0          0          0          0         68   use_no_semi.o

    ----------------------------------------------------------------------
      1376         78          0          0         96       1896   Library Totals
         6          0          0          0          0          0   (incl. Padding)

    ----------------------------------------------------------------------

      Code (inc. data)   RO Data    RW Data    ZI Data      Debug   Library Name

      1370         78          0          0         96       1896   c_w.l

    ----------------------------------------------------------------------
      1376         78          0          0         96       1896   Library Totals

    ----------------------------------------------------------------------

==============================================================================


      Code (inc. data)   RO Data    RW Data    ZI Data      Debug   

     71992       3072      20168        872       9816     615966   Grand Totals
     71992       3072      20168        248       9816     615966   ELF Image Totals (compressed)
     71992       3072      20168        248          0          0   ROM Totals

==============================================================================

    Total RO  Size (Code + RO Data)                92160 (  90.00kB)
    Total RW  Size (RW Data + ZI Data)             10688 (  10.44kB)
    Total ROM Size (Code + RO Data + RW Data)      92408 (  90.24kB)

==============================================================================

